Component: ARM Compiler 5.06 update 5 (build 528) Tool: armlink [4d35e2]

==============================================================================

Section Cross References

    remotecontrol.o(i.GimbalSwitchJudge) refers to gimbalcontrol.o(i.GimbalPidInitPrepare) for GimbalPidInitPrepare
    remotecontrol.o(i.GimbalSwitchJudge) refers to remotecontrol.o(.data) for remoteState_ex
    remotecontrol.o(i.GimbalSwitchJudge) refers to timer.o(.data) for flag_Ready
    remotecontrol.o(i.RemoteControlInit) refers to rc.o(i.ItoE) for ItoE
    remotecontrol.o(i.RemoteControlInit) refers to remotecontrol.o(.data) for remoteState
    remotecontrol.o(i.RemoteControlLoop) refers to rc.o(i.ItoE) for ItoE
    remotecontrol.o(i.RemoteControlLoop) refers to remotecontrol.o(i.RemoteStateFSM) for RemoteStateFSM
    remotecontrol.o(i.RemoteControlLoop) refers to remotecontrol.o(i.GimbalSwitchJudge) for GimbalSwitchJudge
    remotecontrol.o(i.RemoteStateFSM) refers to timer.o(.data) for flag_Ready
    remotecontrol.o(i.RemoteStateFSM) refers to rc.o(.bss) for RC_Ex_Ctl
    remotecontrol.o(i.RemoteStateFSM) refers to remotecontrol.o(.data) for remoteState
    cmcontrol.o(i.CMControlInit) refers to cmcontrol.o(i.CMPID_Init) for CMPID_Init
    cmcontrol.o(i.CMControlInit) refers to cmcontrol.o(i.CMControlOut) for CMControlOut
    cmcontrol.o(i.CMControlLoop) refers to cmcontrol.o(i.CMControlOut) for CMControlOut
    cmcontrol.o(i.CMControlLoop) refers to cmcontrol.o(i.keyboardmove_old) for keyboardmove_old
    cmcontrol.o(i.CMControlLoop) refers to cmcontrol.o(i.CMStop) for CMStop
    cmcontrol.o(i.CMControlLoop) refers to cmcontrol.o(i.followValCal) for followValCal
    cmcontrol.o(i.CMControlLoop) refers to remotecontrol.o(.data) for remoteState
    cmcontrol.o(i.CMControlLoop) refers to rc.o(.bss) for RC_Ex_Ctl
    cmcontrol.o(i.CMControlLoop) refers to cmcontrol.o(.data) for follow_val_temp
    cmcontrol.o(i.CMControlOut) refers to pid.o(i.PID_Driver) for PID_Driver
    cmcontrol.o(i.CMControlOut) refers to monitorcontrol.o(i.CMWatt_Cal) for CMWatt_Cal
    cmcontrol.o(i.CMControlOut) refers to cmcontrol.o(i.CMSpeedLegalize) for CMSpeedLegalize
    cmcontrol.o(i.CMControlOut) refers to can.o(i.CAN1_Send_Bottom) for CAN1_Send_Bottom
    cmcontrol.o(i.CMControlOut) refers to cmcontrol.o(.bss) for CMPid
    cmcontrol.o(i.CMControlOut) refers to can.o(.data) for current_cm_201
    cmcontrol.o(i.CMControlOut) refers to monitorcontrol.o(.data) for ele_cal
    cmcontrol.o(i.CMControlOut) refers to cmcontrol.o(.data) for ele_dec
    cmcontrol.o(i.CMPID_Init) refers to pid.o(i.PID_Init) for PID_Init
    cmcontrol.o(i.CMPID_Init) refers to pid.o(i.SetPIDCR) for SetPIDCR
    cmcontrol.o(i.CMPID_Init) refers to cmcontrol.o(.bss) for CMPid
    cmcontrol.o(i.CMStop) refers to can.o(i.CAN1_Send_Bottom) for CAN1_Send_Bottom
    cmcontrol.o(i.followValCal) refers to pid.o(i.PID_Driver) for PID_Driver
    cmcontrol.o(i.followValCal) refers to cmcontrol.o(i.CMSpeedLegalize) for CMSpeedLegalize
    cmcontrol.o(i.followValCal) refers to gimbalcontrol.o(.data) for position_yaw_relative
    cmcontrol.o(i.followValCal) refers to cmcontrol.o(.bss) for CMFollowPid
    cmcontrol.o(i.keyboardmove_old) refers to cmcontrol.o(.data) for quick_spin_flag
    cmcontrol.o(i.keyboardmove_old) refers to remotecontrol.o(.data) for remoteState
    cmcontrol.o(i.keyboardmove_old) refers to cmcontrol.o(i.move) for move
    cmcontrol.o(i.move) refers to cmcontrol.o(i.CMSpeedLegalize) for CMSpeedLegalize
    cmcontrol.o(i.move) refers to cmcontrol.o(i.CMControlOut) for CMControlOut
    cmcontrol.o(i.move) refers to cmcontrol.o(.data) for quick_spin_flag
    cmcontrol.o(i.move) refers to remotecontrol.o(.data) for remoteState
    pid.o(i.PID_Calc) refers to pid.o(i.PID_BitIsSet) for PID_BitIsSet
    pid.o(i.PID_Calc) refers to pid.o(i.PID_PreCalc) for PID_PreCalc
    pid.o(i.PID_Driver) refers to pid.o(i.PID_Calc) for PID_Calc
    pid.o(i.PID_PreCalc) refers to pid.o(i.PID_BitIsSet) for PID_BitIsSet
    pid.o(i.PidValControl) refers to f2d.o(.text) for __aeabi_f2d
    pid.o(i.PidValControl) refers to printfa.o(i.__0printf) for __2printf
    pid.o(i.PidValControl) refers to pid.o(i.PID_Init) for PID_Init
    pid.o(i.PidValControl) refers to pid.o(i.SetPIDCR) for SetPIDCR
    pid.o(i.PidValControl) refers to usart6.o(.data) for usart6_rxbuf
    pid.o(i.PidValControl) refers to pid.o(.data) for test_p
    gimbalcontrol.o(i.GimbalControlInit) refers to gimbalcontrol.o(i.GimbalPidInitPrepare) for GimbalPidInitPrepare
    gimbalcontrol.o(i.GimbalControlInit) refers to gimbalcontrol.o(i.GimbalStop) for GimbalStop
    gimbalcontrol.o(i.GimbalControlInit) refers to can.o(i.CAN1_Cmd_All) for CAN1_Cmd_All
    gimbalcontrol.o(i.GimbalControlInit) refers to gimbalcontrol.o(.data) for PIDOut_Whole_Pit
    gimbalcontrol.o(i.GimbalControlLoop) refers to gimbalcontrol.o(i.GimbalValLigal) for GimbalValLigal
    gimbalcontrol.o(i.GimbalControlLoop) refers to gimbalcontrol.o(i.GimbalControlValSet) for GimbalControlValSet
    gimbalcontrol.o(i.GimbalControlLoop) refers to gimbalcontrol.o(i.GimbalMove) for GimbalMove
    gimbalcontrol.o(i.GimbalControlLoop) refers to can.o(i.CAN1_Cmd_All) for CAN1_Cmd_All
    gimbalcontrol.o(i.GimbalControlLoop) refers to can.o(.data) for current_position_205
    gimbalcontrol.o(i.GimbalControlLoop) refers to gimbalcontrol.o(.data) for position_yaw_relative
    gimbalcontrol.o(i.GimbalControlLoop) refers to rc.o(.bss) for RC_Ex_Ctl
    gimbalcontrol.o(i.GimbalControlLoop) refers to remotecontrol.o(.data) for remoteState
    gimbalcontrol.o(i.GimbalControlValSet) refers to dflti.o(.text) for __aeabi_i2d
    gimbalcontrol.o(i.GimbalControlValSet) refers to dmul.o(.text) for __aeabi_dmul
    gimbalcontrol.o(i.GimbalControlValSet) refers to f2d.o(.text) for __aeabi_f2d
    gimbalcontrol.o(i.GimbalControlValSet) refers to dadd.o(.text) for __aeabi_dsub
    gimbalcontrol.o(i.GimbalControlValSet) refers to d2f.o(.text) for __aeabi_d2f
    gimbalcontrol.o(i.GimbalControlValSet) refers to gimbalcontrol.o(i.MotorPositionLegalize) for MotorPositionLegalize
    gimbalcontrol.o(i.GimbalControlValSet) refers to gimbalcontrol.o(i.GimbalStop) for GimbalStop
    gimbalcontrol.o(i.GimbalControlValSet) refers to remotecontrol.o(.data) for remoteState
    gimbalcontrol.o(i.GimbalControlValSet) refers to gimbalcontrol.o(.bss) for Gimbal_control
    gimbalcontrol.o(i.GimbalControlValSet) refers to gimbalcontrol.o(.data) for IsInitialKey
    gimbalcontrol.o(i.GimbalControlValSet) refers to rc.o(.bss) for RC_Ex_Ctl
    gimbalcontrol.o(i.GimbalControlValSet) refers to cmcontrol.o(.data) for quick_spin_flag
    gimbalcontrol.o(i.GimbalControlValSet) refers to euler.o(.data) for Yaw
    gimbalcontrol.o(i.GimbalControl_Pitch) refers to pid.o(i.PID_Driver) for PID_Driver
    gimbalcontrol.o(i.GimbalControl_Pitch) refers to gimbalcontrol.o(i.MotorCurrentLegalize) for MotorCurrentLegalize
    gimbalcontrol.o(i.GimbalControl_Pitch) refers to can.o(.data) for current_position_206
    gimbalcontrol.o(i.GimbalControl_Pitch) refers to mpu6500.o(.bss) for mpu6500_real_data
    gimbalcontrol.o(i.GimbalControl_Pitch) refers to gimbalcontrol.o(.bss) for MotorPID_pitch
    gimbalcontrol.o(i.GimbalControl_Pitch) refers to gimbalcontrol.o(.data) for PIDOut_Position_Pit
    gimbalcontrol.o(i.GimbalControl_PitchAngel) refers to pid.o(i.PID_Driver) for PID_Driver
    gimbalcontrol.o(i.GimbalControl_PitchAngel) refers to gimbalcontrol.o(i.MotorCurrentLegalize) for MotorCurrentLegalize
    gimbalcontrol.o(i.GimbalControl_PitchAngel) refers to gimbalcontrol.o(.bss) for Gimbal_control
    gimbalcontrol.o(i.GimbalControl_PitchAngel) refers to mpu6500.o(.bss) for mpu6500_real_data
    gimbalcontrol.o(i.GimbalControl_PitchAngel) refers to gimbalcontrol.o(.data) for PIDOut_Position_Pit
    gimbalcontrol.o(i.GimbalControl_Yaw) refers to pid.o(i.PID_Driver) for PID_Driver
    gimbalcontrol.o(i.GimbalControl_Yaw) refers to gimbalcontrol.o(i.MotorCurrentLegalize) for MotorCurrentLegalize
    gimbalcontrol.o(i.GimbalControl_Yaw) refers to gimbalcontrol.o(.data) for position_yaw_relative
    gimbalcontrol.o(i.GimbalControl_Yaw) refers to mpu6500.o(.bss) for mpu6500_real_data
    gimbalcontrol.o(i.GimbalControl_Yaw) refers to gimbalcontrol.o(.bss) for MotorPID_yaw
    gimbalcontrol.o(i.GimbalControl_YawAngel) refers to pid.o(i.PID_Driver) for PID_Driver
    gimbalcontrol.o(i.GimbalControl_YawAngel) refers to gimbalcontrol.o(i.MotorCurrentLegalize) for MotorCurrentLegalize
    gimbalcontrol.o(i.GimbalControl_YawAngel) refers to gimbalcontrol.o(.bss) for Gimbal_control
    gimbalcontrol.o(i.GimbalControl_YawAngel) refers to mpu6500.o(.bss) for mpu6500_real_data
    gimbalcontrol.o(i.GimbalControl_YawAngel) refers to gimbalcontrol.o(.data) for PIDOut_Position_Yaw
    gimbalcontrol.o(i.GimbalMove) refers to gimbalcontrol.o(i.GimbalControl_Pitch) for GimbalControl_Pitch
    gimbalcontrol.o(i.GimbalMove) refers to gimbalcontrol.o(i.GimbalControl_Yaw) for GimbalControl_Yaw
    gimbalcontrol.o(i.GimbalMove) refers to gimbalcontrol.o(i.GimbalPidInitPrepare) for GimbalPidInitPrepare
    gimbalcontrol.o(i.GimbalMove) refers to gimbalcontrol.o(i.GimbalPidInit) for GimbalPidInit
    gimbalcontrol.o(i.GimbalMove) refers to gimbalcontrol.o(i.GimbalControl_PitchAngel) for GimbalControl_PitchAngel
    gimbalcontrol.o(i.GimbalMove) refers to gimbalcontrol.o(i.GimbalControl_YawAngel) for GimbalControl_YawAngel
    gimbalcontrol.o(i.GimbalMove) refers to remotecontrol.o(.data) for remoteState
    gimbalcontrol.o(i.GimbalMove) refers to gimbalcontrol.o(.data) for IsInitialKey
    gimbalcontrol.o(i.GimbalMove) refers to gimbalcontrol.o(.bss) for Gimbal_control
    gimbalcontrol.o(i.GimbalPidInit) refers to pid.o(i.PID_Init) for PID_Init
    gimbalcontrol.o(i.GimbalPidInit) refers to pid.o(i.SetPIDCR) for SetPIDCR
    gimbalcontrol.o(i.GimbalPidInit) refers to gimbalcontrol.o(.bss) for MotorPID_pitch
    gimbalcontrol.o(i.GimbalPidInitPrepare) refers to pid.o(i.PID_Init) for PID_Init
    gimbalcontrol.o(i.GimbalPidInitPrepare) refers to pid.o(i.SetPIDCR) for SetPIDCR
    gimbalcontrol.o(i.GimbalPidInitPrepare) refers to gimbalcontrol.o(.bss) for MotorPID_pitch
    gimbalcontrol.o(i.GimbalStop) refers to gimbalcontrol.o(.bss) for Gimbal_control
    gimbalcontrol.o(i.GimbalStop) refers to euler.o(.data) for Yaw
    gimbalcontrol.o(i.GimbalStop) refers to gimbalcontrol.o(.data) for PIDOut_Whole_Yaw
    auto_aim.o(i.Auto_aim) refers to frame.o(i.unpackFrame) for unpackFrame
    auto_aim.o(i.Auto_aim) refers to auto_aim.o(.bss) for fram
    auto_aim.o(i.Auto_aim) refers to auto_aim.o(.data) for parameter_yaw
    shootcontrol.o(i.Bullet_Load_Judge) refers to shootcontrol.o(.data) for infrared1_state_prvious
    shootcontrol.o(i.Empty_Detection) refers to shootcontrol.o(i.Set_Target) for Set_Target
    shootcontrol.o(i.Empty_Detection) refers to shootcontrol.o(.data) for empty_count
    shootcontrol.o(i.Empty_Detection) refers to can.o(.data) for current_angle_204
    shootcontrol.o(i.FrictionControl) refers to stm32f4xx_tim.o(i.TIM_SetCompare1) for TIM_SetCompare1
    shootcontrol.o(i.FrictionControl) refers to stm32f4xx_tim.o(i.TIM_SetCompare2) for TIM_SetCompare2
    shootcontrol.o(i.FrictionControl) refers to stm32f4xx_gpio.o(i.GPIO_ResetBits) for GPIO_ResetBits
    shootcontrol.o(i.FrictionControl) refers to stm32f4xx_gpio.o(i.GPIO_SetBits) for GPIO_SetBits
    shootcontrol.o(i.FrictionControl) refers to shootcontrol.o(.data) for frictionState
    shootcontrol.o(i.FrictionJudge) refers to shootcontrol.o(i.FrictionControl) for FrictionControl
    shootcontrol.o(i.FrictionJudge) refers to rc.o(.bss) for RC_Ex_Ctl
    shootcontrol.o(i.FrictionJudge) refers to shootcontrol.o(.data) for friction_count
    shootcontrol.o(i.FrictionJudge) refers to rc.o(.data) for flag_friction_switch
    shootcontrol.o(i.GunControl) refers to shootcontrol.o(i.ShootStop) for ShootStop
    shootcontrol.o(i.GunControl) refers to shootcontrol.o(i.GunShootAction) for GunShootAction
    shootcontrol.o(i.GunControl) refers to shootcontrol.o(.data) for frictionState
    shootcontrol.o(i.GunShootAction) refers to stm32f4xx_gpio.o(i.GPIO_SetBits) for GPIO_SetBits
    shootcontrol.o(i.GunShootAction) refers to stm32f4xx_gpio.o(i.GPIO_ResetBits) for GPIO_ResetBits
    shootcontrol.o(i.GunShootAction) refers to shootcontrol.o(i.Set_Target) for Set_Target
    shootcontrol.o(i.GunShootAction) refers to rc.o(.bss) for RC_Ex_Ctl
    shootcontrol.o(i.GunShootAction) refers to shootcontrol.o(.data) for now_press
    shootcontrol.o(i.PlatePID) refers to pid.o(i.PID_Driver) for PID_Driver
    shootcontrol.o(i.PlatePID) refers to shootcontrol.o(i.PlateMotorCurrentLegalize) for PlateMotorCurrentLegalize
    shootcontrol.o(i.PlatePID) refers to can.o(.data) for current_angle_204
    shootcontrol.o(i.PlatePID) refers to shootcontrol.o(.bss) for MotorPID_plate
    shootcontrol.o(i.PlatePID) refers to shootcontrol.o(.data) for PIDOut_Position_Plate
    shootcontrol.o(i.PlatePidInit) refers to pid.o(i.PID_Init) for PID_Init
    shootcontrol.o(i.PlatePidInit) refers to pid.o(i.SetPIDCR) for SetPIDCR
    shootcontrol.o(i.PlatePidInit) refers to shootcontrol.o(.bss) for MotorPID_plate
    shootcontrol.o(i.Read_Infrared_State) refers to stm32f4xx_gpio.o(i.GPIO_ReadInputDataBit) for GPIO_ReadInputDataBit
    shootcontrol.o(i.Read_Infrared_State) refers to shootcontrol.o(i.Bullet_Load_Judge) for Bullet_Load_Judge
    shootcontrol.o(i.Read_Infrared_State) refers to shootcontrol.o(.data) for infrared1_state_now
    shootcontrol.o(i.Set_Target) refers to can.o(.data) for current_angle_204
    shootcontrol.o(i.Set_Target) refers to shootcontrol.o(.data) for bullet_count
    shootcontrol.o(i.ShootControlInit) refers to shootcontrol.o(i.PlatePidInit) for PlatePidInit
    shootcontrol.o(i.ShootControlInit) refers to stm32f4xx_tim.o(i.TIM_SetCompare1) for TIM_SetCompare1
    shootcontrol.o(i.ShootControlInit) refers to stm32f4xx_tim.o(i.TIM_SetCompare2) for TIM_SetCompare2
    shootcontrol.o(i.ShootControlInit) refers to delay.o(i.delay_ms) for delay_ms
    shootcontrol.o(i.ShootControlInit) refers to shootcontrol.o(i.ShootStop) for ShootStop
    shootcontrol.o(i.ShootControlLoop) refers to shootcontrol.o(i.ShootStop) for ShootStop
    shootcontrol.o(i.ShootControlLoop) refers to can.o(i.CAN2_Cmd_SHOOT) for CAN2_Cmd_SHOOT
    shootcontrol.o(i.ShootControlLoop) refers to shootcontrol.o(i.FrictionJudge) for FrictionJudge
    shootcontrol.o(i.ShootControlLoop) refers to shootcontrol.o(i.GunControl) for GunControl
    shootcontrol.o(i.ShootControlLoop) refers to shootcontrol.o(i.blocking_judge) for blocking_judge
    shootcontrol.o(i.ShootControlLoop) refers to shootcontrol.o(i.Empty_Detection) for Empty_Detection
    shootcontrol.o(i.ShootControlLoop) refers to remotecontrol.o(.data) for remoteState
    shootcontrol.o(i.ShootControlLoop) refers to shootcontrol.o(.data) for now_remote_state
    shootcontrol.o(i.ShootControlLoop) refers to can.o(.data) for current_angle_204
    shootcontrol.o(i.ShootStop) refers to stm32f4xx_tim.o(i.TIM_SetCompare1) for TIM_SetCompare1
    shootcontrol.o(i.ShootStop) refers to stm32f4xx_tim.o(i.TIM_SetCompare2) for TIM_SetCompare2
    shootcontrol.o(i.ShootStop) refers to shootcontrol.o(.data) for PIDOut_Whole_Shoot
    shootcontrol.o(i.blocking_judge) refers to shootcontrol.o(i.PlatePID) for PlatePID
    shootcontrol.o(i.blocking_judge) refers to can.o(.data) for current_angle_204
    shootcontrol.o(i.blocking_judge) refers to shootcontrol.o(.data) for blocking_flag
    monitorcontrol.o(i.CMWatt_Cal) refers to f2d.o(.text) for __aeabi_f2d
    monitorcontrol.o(i.CMWatt_Cal) refers to fabs.o(i.__hardfp_fabs) for __hardfp_fabs
    monitorcontrol.o(i.CMWatt_Cal) refers to cdrcmple.o(.text) for __aeabi_cdrcmple
    monitorcontrol.o(i.CMWatt_Cal) refers to ddiv.o(.text) for __aeabi_ddiv
    monitorcontrol.o(i.CMWatt_Cal) refers to dadd.o(.text) for __aeabi_drsub
    monitorcontrol.o(i.CMWatt_Cal) refers to dflti.o(.text) for __aeabi_i2d
    monitorcontrol.o(i.CMWatt_Cal) refers to dmul.o(.text) for __aeabi_dmul
    monitorcontrol.o(i.CMWatt_Cal) refers to d2f.o(.text) for __aeabi_d2f
    monitorcontrol.o(i.PowerMonitor) refers to adc.o(i.Get_Adc) for Get_Adc
    monitorcontrol.o(i.PowerMonitor) refers to dfltui.o(.text) for __aeabi_ui2d
    monitorcontrol.o(i.PowerMonitor) refers to ddiv.o(.text) for __aeabi_ddiv
    monitorcontrol.o(i.PowerMonitor) refers to dmul.o(.text) for __aeabi_dmul
    monitorcontrol.o(i.PowerMonitor) refers to dadd.o(.text) for __aeabi_dsub
    monitorcontrol.o(i.PowerMonitor) refers to d2f.o(.text) for __aeabi_d2f
    monitorcontrol.o(i.PowerMonitor) refers to f2d.o(.text) for __aeabi_f2d
    monitorcontrol.o(i.PowerMonitor) refers to fabs.o(i.__hardfp_fabs) for __hardfp_fabs
    monitorcontrol.o(i.PowerMonitor) refers to monitorcontrol.o(.data) for ele_cal
    monitorcontrol.o(i.RcReceiveMonitor) refers to rc.o(.data) for rc_monitor_count
    monitorcontrol.o(i.RcReceiveMonitor) refers to monitorcontrol.o(.data) for rc_monitor_time
    monitorcontrol.o(i.RcReceiveMonitor) refers to remotecontrol.o(.data) for remoteState
    monitorcontrol.o(i.monitorControlLoop) refers to monitorcontrol.o(i.RcReceiveMonitor) for RcReceiveMonitor
    monitorcontrol.o(i.monitorControlLoop) refers to monitorcontrol.o(i.PowerMonitor) for PowerMonitor
    catchcontrol.o(i.AutoCatch_TaskControl) refers to catchcontrol.o(i.AutoCatch_tInit) for AutoCatch_tInit
    catchcontrol.o(i.AutoCatch_TaskControl) refers to catchcontrol.o(.data) for r_flag
    catchcontrol.o(i.AutoCatch_TaskJudge) refers to catchbullet.o(i.catchstart) for catchstart
    catchcontrol.o(i.AutoCatch_TaskJudge) refers to catchbullet.o(i.movebackward) for movebackward
    catchcontrol.o(i.AutoCatch_TaskJudge) refers to catchbullet.o(i.moveforward) for moveforward
    catchcontrol.o(i.AutoCatch_TaskJudge) refers to catchbullet.o(i.catchfinish) for catchfinish
    catchcontrol.o(i.AutoCatch_TaskJudge) refers to catchbullet.o(.data) for setangle1
    catchcontrol.o(i.AutoCatch_tInit) refers to catchcontrol.o(.data) for tA_Init_ms
    catchcontrol.o(i.CatchControl) refers to stm32f4xx_tim.o(i.TIM_SetCompare1) for TIM_SetCompare1
    catchcontrol.o(i.CatchControl) refers to can.o(i.CAN2_Send_Bottom) for CAN2_Send_Bottom
    catchcontrol.o(i.CatchControl) refers to catchbullet.o(i.flift) for flift
    catchcontrol.o(i.CatchControl) refers to catchbullet.o(i.moveforward) for moveforward
    catchcontrol.o(i.CatchControl) refers to catchbullet.o(i.movebackward) for movebackward
    catchcontrol.o(i.CatchControl) refers to catchcontrol.o(i.AutoCatch_TaskControl) for AutoCatch_TaskControl
    catchcontrol.o(i.CatchControl) refers to catchcontrol.o(i.AutoCatch_TaskJudge) for AutoCatch_TaskJudge
    catchcontrol.o(i.CatchControl) refers to catchbullet.o(i.AutoCatch_CatchBullet) for AutoCatch_CatchBullet
    catchcontrol.o(i.CatchControl) refers to catchbullet.o(i.fliftdown) for fliftdown
    catchcontrol.o(i.CatchControl) refers to remotecontrol.o(.data) for remoteState
    catchcontrol.o(i.CatchControl) refers to catchcontrol.o(.data) for IsInitialSet0
    catchcontrol.o(i.CatchControl) refers to catchbullet.o(.data) for setangle1
    catchcontrol.o(i.CatchControl) refers to can.o(.data) for current_angle_201
    catchcontrol.o(i.CatchControl) refers to rc.o(.bss) for RC_Ex_Ctl
    catchcontrol.o(i.CatchInit) refers to catchbullet.o(i.moveinit) for moveinit
    catchcontrol.o(i.CatchInit) refers to catchbullet.o(i.catchinit) for catchinit
    catchcontrol.o(i.CatchInit) refers to catchbullet.o(i.liftinit) for liftinit
    catchcontrol.o(i.CatchInit) refers to can.o(i.CAN2_Send_Bottom) for CAN2_Send_Bottom
    main.o(i.main) refers to bsp.o(i.BSP_Init) for BSP_Init
    controltask.o(i.Control_Task) refers to remotecontrol.o(i.RemoteControlLoop) for RemoteControlLoop
    controltask.o(i.Control_Task) refers to monitorcontrol.o(i.monitorControlLoop) for monitorControlLoop
    controltask.o(i.Control_Task) refers to gimbalcontrol.o(i.GimbalControlLoop) for GimbalControlLoop
    controltask.o(i.Control_Task) refers to catchcontrol.o(i.CatchControl) for CatchControl
    controltask.o(i.Control_Task) refers to cmcontrol.o(i.CMControlLoop) for CMControlLoop
    controltask.o(i.Control_Task) refers to shootcontrol.o(i.ShootControlLoop) for ShootControlLoop
    controltask.o(i.Control_Task) refers to controltask.o(.data) for time_tick_1ms
    controltask.o(i.Control_Task) refers to remotecontrol.o(.data) for remoteState
    controltask.o(i.WholeInitTask) refers to shootcontrol.o(i.ShootControlInit) for ShootControlInit
    controltask.o(i.WholeInitTask) refers to mpu6500.o(i.MPU6500_Init) for MPU6500_Init
    controltask.o(i.WholeInitTask) refers to euler.o(i.init_euler) for init_euler
    controltask.o(i.WholeInitTask) refers to remotecontrol.o(i.RemoteControlInit) for RemoteControlInit
    controltask.o(i.WholeInitTask) refers to cmcontrol.o(i.CMControlInit) for CMControlInit
    controltask.o(i.WholeInitTask) refers to gimbalcontrol.o(i.GimbalControlInit) for GimbalControlInit
    controltask.o(i.WholeInitTask) refers to catchcontrol.o(i.CatchInit) for CatchInit
    controltask.o(i.WholeInitTask) refers to stm32f4xx_tim.o(i.TIM_SetCompare1) for TIM_SetCompare1
    controltask.o(i.WholeInitTask) refers to delay.o(i.delay_ms) for delay_ms
    controltask.o(i.WholeInitTask) refers to can.o(i.CAN2_Cmd_SHOOT) for CAN2_Cmd_SHOOT
    delay.o(i.delay_init) refers to misc.o(i.SysTick_CLKSourceConfig) for SysTick_CLKSourceConfig
    delay.o(i.delay_init) refers to delay.o(.data) for fac_us
    delay.o(i.delay_ms) refers to delay.o(i.delay_xms) for delay_xms
    delay.o(i.delay_us) refers to delay.o(.data) for fac_us
    delay.o(i.delay_xms) refers to delay.o(.data) for fac_ms
    led.o(i.Led_Configuration) refers to stm32f4xx_rcc.o(i.RCC_AHB1PeriphClockCmd) for RCC_AHB1PeriphClockCmd
    led.o(i.Led_Configuration) refers to stm32f4xx_gpio.o(i.GPIO_Init) for GPIO_Init
    led.o(i.Led_Configuration) refers to stm32f4xx_gpio.o(i.GPIO_SetBits) for GPIO_SetBits
    led.o(i.Led_Configuration) refers to stm32f4xx_gpio.o(i.GPIO_ResetBits) for GPIO_ResetBits
    bsp.o(i.BSP_Init) refers to delay.o(i.delay_init) for delay_init
    bsp.o(i.BSP_Init) refers to pwm.o(i.TIM8_PWM_Init) for TIM8_PWM_Init
    bsp.o(i.BSP_Init) refers to led.o(i.Led_Configuration) for Led_Configuration
    bsp.o(i.BSP_Init) refers to cylinder.o(i.Cylinder_Configuration) for Cylinder_Configuration
    bsp.o(i.BSP_Init) refers to infrared.o(i.Infrared_Configuration) for Infrared_Configuration
    bsp.o(i.BSP_Init) refers to buzzer.o(i.Buzzer_Init) for Buzzer_Init
    bsp.o(i.BSP_Init) refers to laser.o(i.Laser_Configuration) for Laser_Configuration
    bsp.o(i.BSP_Init) refers to adc.o(i.Adc_Init) for Adc_Init
    bsp.o(i.BSP_Init) refers to usart6.o(i.USART6_Configuration) for USART6_Configuration
    bsp.o(i.BSP_Init) refers to usart3.o(i.USART3_DMA_Init) for USART3_DMA_Init
    bsp.o(i.BSP_Init) refers to spi.o(i.SPI5Init) for SPI5Init
    bsp.o(i.BSP_Init) refers to rc.o(i.RC_Init) for RC_Init
    bsp.o(i.BSP_Init) refers to can.o(i.CAN1_Mode_Init) for CAN1_Mode_Init
    bsp.o(i.BSP_Init) refers to can.o(i.CAN2_Mode_Init) for CAN2_Mode_Init
    bsp.o(i.BSP_Init) refers to timer.o(i.TIM12_Init) for TIM12_Init
    bsp.o(i.BSP_Init) refers to controltask.o(i.WholeInitTask) for WholeInitTask
    bsp.o(i.BSP_Init) refers to timer.o(i.TIM2_Init) for TIM2_Init
    bsp.o(i.BSP_Init) refers to delay.o(i.delay_ms) for delay_ms
    bsp.o(i.BSP_Init) refers to timer.o(i.TIM5_Init) for TIM5_Init
    timer.o(i.TIM12_Init) refers to stm32f4xx_rcc.o(i.RCC_APB1PeriphClockCmd) for RCC_APB1PeriphClockCmd
    timer.o(i.TIM12_Init) refers to stm32f4xx_rcc.o(i.RCC_AHB1PeriphClockCmd) for RCC_AHB1PeriphClockCmd
    timer.o(i.TIM12_Init) refers to stm32f4xx_gpio.o(i.GPIO_PinAFConfig) for GPIO_PinAFConfig
    timer.o(i.TIM12_Init) refers to stm32f4xx_gpio.o(i.GPIO_Init) for GPIO_Init
    timer.o(i.TIM12_Init) refers to stm32f4xx_tim.o(i.TIM_ITConfig) for TIM_ITConfig
    timer.o(i.TIM12_Init) refers to stm32f4xx_tim.o(i.TIM_TimeBaseInit) for TIM_TimeBaseInit
    timer.o(i.TIM12_Init) refers to stm32f4xx_tim.o(i.TIM_OC1Init) for TIM_OC1Init
    timer.o(i.TIM12_Init) refers to stm32f4xx_tim.o(i.TIM_OC2Init) for TIM_OC2Init
    timer.o(i.TIM12_Init) refers to stm32f4xx_tim.o(i.TIM_OC1PreloadConfig) for TIM_OC1PreloadConfig
    timer.o(i.TIM12_Init) refers to stm32f4xx_tim.o(i.TIM_OC2PreloadConfig) for TIM_OC2PreloadConfig
    timer.o(i.TIM12_Init) refers to stm32f4xx_tim.o(i.TIM_ARRPreloadConfig) for TIM_ARRPreloadConfig
    timer.o(i.TIM12_Init) refers to stm32f4xx_tim.o(i.TIM_Cmd) for TIM_Cmd
    timer.o(i.TIM2_IRQHandler) refers to stm32f4xx_tim.o(i.TIM_GetITStatus) for TIM_GetITStatus
    timer.o(i.TIM2_IRQHandler) refers to euler.o(i.update_euler) for update_euler
    timer.o(i.TIM2_IRQHandler) refers to shootcontrol.o(i.Read_Infrared_State) for Read_Infrared_State
    timer.o(i.TIM2_IRQHandler) refers to stm32f4xx_tim.o(i.TIM_ClearITPendingBit) for TIM_ClearITPendingBit
    timer.o(i.TIM2_Init) refers to stm32f4xx_rcc.o(i.RCC_APB1PeriphClockCmd) for RCC_APB1PeriphClockCmd
    timer.o(i.TIM2_Init) refers to stm32f4xx_tim.o(i.TIM_TimeBaseInit) for TIM_TimeBaseInit
    timer.o(i.TIM2_Init) refers to stm32f4xx_tim.o(i.TIM_ITConfig) for TIM_ITConfig
    timer.o(i.TIM2_Init) refers to stm32f4xx_tim.o(i.TIM_Cmd) for TIM_Cmd
    timer.o(i.TIM2_Init) refers to misc.o(i.NVIC_Init) for NVIC_Init
    timer.o(i.TIM5_IRQHandler) refers to stm32f4xx_tim.o(i.TIM_GetITStatus) for TIM_GetITStatus
    timer.o(i.TIM5_IRQHandler) refers to gimbalcontrol.o(i.GimbalPidInit) for GimbalPidInit
    timer.o(i.TIM5_IRQHandler) refers to controltask.o(i.Control_Task) for Control_Task
    timer.o(i.TIM5_IRQHandler) refers to stm32f4xx_tim.o(i.TIM_ClearITPendingBit) for TIM_ClearITPendingBit
    timer.o(i.TIM5_IRQHandler) refers to timer.o(.data) for flag_Ready
    timer.o(i.TIM5_Init) refers to stm32f4xx_rcc.o(i.RCC_APB1PeriphClockCmd) for RCC_APB1PeriphClockCmd
    timer.o(i.TIM5_Init) refers to stm32f4xx_tim.o(i.TIM_TimeBaseInit) for TIM_TimeBaseInit
    timer.o(i.TIM5_Init) refers to stm32f4xx_tim.o(i.TIM_ITConfig) for TIM_ITConfig
    timer.o(i.TIM5_Init) refers to misc.o(i.NVIC_Init) for NVIC_Init
    timer.o(i.TIM5_Init) refers to stm32f4xx_tim.o(i.TIM_Cmd) for TIM_Cmd
    spi.o(i.SPI5Init) refers to stm32f4xx_gpio.o(i.GPIO_Init) for GPIO_Init
    spi.o(i.SPI5Init) refers to stm32f4xx_gpio.o(i.GPIO_PinAFConfig) for GPIO_PinAFConfig
    mpu6500.o(i.MPU6500ReadGYRO) refers to mpu6500.o(i.MPU6500ReadSPI) for MPU6500ReadSPI
    mpu6500.o(i.MPU6500ReadGYRO) refers to mpu6500.o(.bss) for mpu6500_raw_data
    mpu6500.o(i.MPU6500ReadGYRO) refers to mpu6500.o(.data) for offset_x
    mpu6500.o(i.MPU6500ReadSPI) refers to spi.o(i.SPI5ReadWriteByte) for SPI5ReadWriteByte
    mpu6500.o(i.MPU6500ReadSPISingle) refers to spi.o(i.SPI5ReadWriteByte) for SPI5ReadWriteByte
    mpu6500.o(i.MPU6500WriteSPI) refers to spi.o(i.SPI5ReadWriteByte) for SPI5ReadWriteByte
    mpu6500.o(i.MPU6500_Init) refers to delay.o(i.delay_ms) for delay_ms
    mpu6500.o(i.MPU6500_Init) refers to mpu6500.o(i.getDeviceID) for getDeviceID
    mpu6500.o(i.MPU6500_Init) refers to mpu6500.o(i.MPU6500WriteSPI) for MPU6500WriteSPI
    mpu6500.o(i.MPU6500_Init) refers to mpu6500.o(i.gyro_offset) for gyro_offset
    mpu6500.o(i.MPU6500_Read) refers to mpu6500.o(i.MPU6500ReadSPI) for MPU6500ReadSPI
    mpu6500.o(i.MPU6500_Read) refers to dflti.o(.text) for __aeabi_i2d
    mpu6500.o(i.MPU6500_Read) refers to dmul.o(.text) for __aeabi_dmul
    mpu6500.o(i.MPU6500_Read) refers to d2f.o(.text) for __aeabi_d2f
    mpu6500.o(i.MPU6500_Read) refers to mpu6500.o(.bss) for mpu6500_raw_data
    mpu6500.o(i.MPU6500_Read) refers to mpu6500.o(.data) for offset_x
    mpu6500.o(i.MPU6500_ReadACCEL) refers to mpu6500.o(i.MPU6500ReadSPI) for MPU6500ReadSPI
    mpu6500.o(i.MPU6500_ReadACCEL) refers to mpu6500.o(.bss) for mpu6500_raw_data
    mpu6500.o(i.getDeviceID) refers to mpu6500.o(i.MPU6500ReadSPISingle) for MPU6500ReadSPISingle
    mpu6500.o(i.gyro_offset) refers to mpu6500.o(i.MPU6500ReadSPI) for MPU6500ReadSPI
    mpu6500.o(i.gyro_offset) refers to mpu6500.o(i.myabs) for myabs
    mpu6500.o(i.gyro_offset) refers to delay.o(i.delay_ms) for delay_ms
    mpu6500.o(i.gyro_offset) refers to mpu6500.o(.data) for num
    usart6.o(i.USART6_Configuration) refers to stm32f4xx_rcc.o(i.RCC_AHB1PeriphClockCmd) for RCC_AHB1PeriphClockCmd
    usart6.o(i.USART6_Configuration) refers to stm32f4xx_rcc.o(i.RCC_APB2PeriphClockCmd) for RCC_APB2PeriphClockCmd
    usart6.o(i.USART6_Configuration) refers to stm32f4xx_gpio.o(i.GPIO_PinAFConfig) for GPIO_PinAFConfig
    usart6.o(i.USART6_Configuration) refers to stm32f4xx_gpio.o(i.GPIO_Init) for GPIO_Init
    usart6.o(i.USART6_Configuration) refers to stm32f4xx_usart.o(i.USART_Init) for USART_Init
    usart6.o(i.USART6_Configuration) refers to stm32f4xx_usart.o(i.USART_Cmd) for USART_Cmd
    usart6.o(i.USART6_Configuration) refers to stm32f4xx_usart.o(i.USART_ClearFlag) for USART_ClearFlag
    usart6.o(i.USART6_Configuration) refers to stm32f4xx_usart.o(i.USART_ITConfig) for USART_ITConfig
    usart6.o(i.USART6_Configuration) refers to misc.o(i.NVIC_Init) for NVIC_Init
    usart6.o(i.USART6_IRQHandler) refers to stm32f4xx_usart.o(i.USART_GetITStatus) for USART_GetITStatus
    usart6.o(i.USART6_IRQHandler) refers to stm32f4xx_usart.o(i.USART_ReceiveData) for USART_ReceiveData
    usart6.o(i.USART6_IRQHandler) refers to usart6.o(.data) for usart6_rxbuf
    usart6.o(i.USART6_IRQHandler) refers to usart6.o(.bss) for USART_RX_BUF
    rc.o(i.DMA2_Stream2_IRQHandler) refers to stm32f4xx_dma.o(i.DMA_GetITStatus) for DMA_GetITStatus
    rc.o(i.DMA2_Stream2_IRQHandler) refers to stm32f4xx_dma.o(i.DMA_ClearFlag) for DMA_ClearFlag
    rc.o(i.DMA2_Stream2_IRQHandler) refers to stm32f4xx_dma.o(i.DMA_ClearITPendingBit) for DMA_ClearITPendingBit
    rc.o(i.DMA2_Stream2_IRQHandler) refers to rc.o(.bss) for sbus_rx_buffer
    rc.o(i.DMA2_Stream2_IRQHandler) refers to rc.o(.data) for rc_monitor_count
    rc.o(i.ItoE) refers to rc.o(.bss) for RC_Ctl
    rc.o(i.ItoE) refers to rc.o(.data) for friction_rc_last_position
    rc.o(i.RC_Init) refers to stm32f4xx_rcc.o(i.RCC_AHB1PeriphClockCmd) for RCC_AHB1PeriphClockCmd
    rc.o(i.RC_Init) refers to stm32f4xx_rcc.o(i.RCC_APB2PeriphClockCmd) for RCC_APB2PeriphClockCmd
    rc.o(i.RC_Init) refers to stm32f4xx_gpio.o(i.GPIO_PinAFConfig) for GPIO_PinAFConfig
    rc.o(i.RC_Init) refers to stm32f4xx_gpio.o(i.GPIO_Init) for GPIO_Init
    rc.o(i.RC_Init) refers to stm32f4xx_usart.o(i.USART_DeInit) for USART_DeInit
    rc.o(i.RC_Init) refers to stm32f4xx_usart.o(i.USART_Init) for USART_Init
    rc.o(i.RC_Init) refers to stm32f4xx_usart.o(i.USART_Cmd) for USART_Cmd
    rc.o(i.RC_Init) refers to stm32f4xx_usart.o(i.USART_DMACmd) for USART_DMACmd
    rc.o(i.RC_Init) refers to misc.o(i.NVIC_Init) for NVIC_Init
    rc.o(i.RC_Init) refers to stm32f4xx_dma.o(i.DMA_DeInit) for DMA_DeInit
    rc.o(i.RC_Init) refers to stm32f4xx_dma.o(i.DMA_Init) for DMA_Init
    rc.o(i.RC_Init) refers to stm32f4xx_dma.o(i.DMA_ITConfig) for DMA_ITConfig
    rc.o(i.RC_Init) refers to stm32f4xx_dma.o(i.DMA_Cmd) for DMA_Cmd
    rc.o(i.RC_Init) refers to rc.o(.bss) for sbus_rx_buffer
    rc.o(i.TestRc) refers to printfa.o(i.__0printf) for __2printf
    rc.o(i.TestRc) refers to rc.o(.bss) for RC_Ctl
    can.o(i.CAN1_Cmd_All) refers to stm32f4xx_can.o(i.CAN_Transmit) for CAN_Transmit
    can.o(i.CAN1_Cmd_standard) refers to stm32f4xx_can.o(i.CAN_Transmit) for CAN_Transmit
    can.o(i.CAN1_Mode_Init) refers to stm32f4xx_rcc.o(i.RCC_AHB1PeriphClockCmd) for RCC_AHB1PeriphClockCmd
    can.o(i.CAN1_Mode_Init) refers to stm32f4xx_rcc.o(i.RCC_APB1PeriphClockCmd) for RCC_APB1PeriphClockCmd
    can.o(i.CAN1_Mode_Init) refers to stm32f4xx_gpio.o(i.GPIO_Init) for GPIO_Init
    can.o(i.CAN1_Mode_Init) refers to stm32f4xx_gpio.o(i.GPIO_PinAFConfig) for GPIO_PinAFConfig
    can.o(i.CAN1_Mode_Init) refers to stm32f4xx_can.o(i.CAN_Init) for CAN_Init
    can.o(i.CAN1_Mode_Init) refers to stm32f4xx_can.o(i.CAN_FilterInit) for CAN_FilterInit
    can.o(i.CAN1_Mode_Init) refers to stm32f4xx_can.o(i.CAN_ITConfig) for CAN_ITConfig
    can.o(i.CAN1_Mode_Init) refers to misc.o(i.NVIC_Init) for NVIC_Init
    can.o(i.CAN1_RX0_IRQHandler) refers to stm32f4xx_can.o(i.CAN_GetITStatus) for CAN_GetITStatus
    can.o(i.CAN1_RX0_IRQHandler) refers to stm32f4xx_can.o(i.CAN_ClearITPendingBit) for CAN_ClearITPendingBit
    can.o(i.CAN1_RX0_IRQHandler) refers to stm32f4xx_can.o(i.CAN_Receive) for CAN_Receive
    can.o(i.CAN1_RX0_IRQHandler) refers to can.o(.bss) for rx_message
    can.o(i.CAN1_RX0_IRQHandler) refers to can.o(.data) for current_position_206
    can.o(i.CAN1_Send_Bottom) refers to stm32f4xx_can.o(i.CAN_Transmit) for CAN_Transmit
    can.o(i.CAN2_Cmd_SHOOT) refers to stm32f4xx_can.o(i.CAN_Transmit) for CAN_Transmit
    can.o(i.CAN2_Cmd_SHOOT) refers to catchbullet.o(.data) for liftspeed1
    can.o(i.CAN2_Mode_Init) refers to stm32f4xx_rcc.o(i.RCC_AHB1PeriphClockCmd) for RCC_AHB1PeriphClockCmd
    can.o(i.CAN2_Mode_Init) refers to stm32f4xx_rcc.o(i.RCC_APB1PeriphClockCmd) for RCC_APB1PeriphClockCmd
    can.o(i.CAN2_Mode_Init) refers to stm32f4xx_gpio.o(i.GPIO_Init) for GPIO_Init
    can.o(i.CAN2_Mode_Init) refers to stm32f4xx_gpio.o(i.GPIO_PinAFConfig) for GPIO_PinAFConfig
    can.o(i.CAN2_Mode_Init) refers to stm32f4xx_can.o(i.CAN_Init) for CAN_Init
    can.o(i.CAN2_Mode_Init) refers to stm32f4xx_can.o(i.CAN_FilterInit) for CAN_FilterInit
    can.o(i.CAN2_Mode_Init) refers to stm32f4xx_can.o(i.CAN_ITConfig) for CAN_ITConfig
    can.o(i.CAN2_Mode_Init) refers to misc.o(i.NVIC_Init) for NVIC_Init
    can.o(i.CAN2_RX1_IRQHandler) refers to stm32f4xx_can.o(i.CAN_GetITStatus) for CAN_GetITStatus
    can.o(i.CAN2_RX1_IRQHandler) refers to stm32f4xx_can.o(i.CAN_ClearITPendingBit) for CAN_ClearITPendingBit
    can.o(i.CAN2_RX1_IRQHandler) refers to stm32f4xx_can.o(i.CAN_Receive) for CAN_Receive
    can.o(i.CAN2_RX1_IRQHandler) refers to dflti.o(.text) for __aeabi_i2d
    can.o(i.CAN2_RX1_IRQHandler) refers to dmul.o(.text) for __aeabi_dmul
    can.o(i.CAN2_RX1_IRQHandler) refers to ddiv.o(.text) for __aeabi_ddiv
    can.o(i.CAN2_RX1_IRQHandler) refers to f2d.o(.text) for __aeabi_f2d
    can.o(i.CAN2_RX1_IRQHandler) refers to dadd.o(.text) for __aeabi_dadd
    can.o(i.CAN2_RX1_IRQHandler) refers to d2f.o(.text) for __aeabi_d2f
    can.o(i.CAN2_RX1_IRQHandler) refers to can.o(.bss) for rx_message2
    can.o(i.CAN2_RX1_IRQHandler) refers to can.o(.data) for can2_current_speed201
    can.o(i.CAN2_Send_Bottom) refers to stm32f4xx_can.o(i.CAN_Transmit) for CAN_Transmit
    mpu6050_driver.o(i.MPU6050_Initialization) refers to mpu6050_i2c.o(i.IIC_GPIO_Init) for IIC_GPIO_Init
    mpu6050_driver.o(i.MPU6050_Initialization) refers to delay.o(i.delay_ms) for delay_ms
    mpu6050_driver.o(i.MPU6050_Initialization) refers to mpu6050_i2c.o(i.IIC_WriteData) for IIC_WriteData
    mpu6050_driver.o(i.MPU6050_Initialization) refers to mpu6050_i2c.o(i.IIC_ReadData) for IIC_ReadData
    mpu6050_driver.o(i.MPU6050_Initialization) refers to printfa.o(i.__0printf) for __2printf
    mpu6050_driver.o(i.MPU6050_Initialization) refers to mpu6050_driver.o(i.MPU6050_ReadData) for MPU6050_ReadData
    mpu6050_driver.o(i.MPU6050_Initialization) refers to mpu6050_driver.o(.bss) for MPU_OFFSET
    mpu6050_driver.o(i.MPU6050_ReadData) refers to mpu6050_i2c.o(i.IIC_ReadData) for IIC_ReadData
    mpu6050_driver.o(i.MPU6050_ReadData) refers to mpu6050_driver.o(.bss) for MPU_OFFSET
    mpu6050_i2c.o(i.HEAT_Configuration) refers to stm32f4xx_rcc.o(i.RCC_AHB1PeriphClockCmd) for RCC_AHB1PeriphClockCmd
    mpu6050_i2c.o(i.HEAT_Configuration) refers to stm32f4xx_gpio.o(i.GPIO_Init) for GPIO_Init
    mpu6050_i2c.o(i.HEAT_Configuration) refers to stm32f4xx_gpio.o(i.GPIO_ResetBits) for GPIO_ResetBits
    mpu6050_i2c.o(i.IIC_Ack) refers to stm32f4xx_gpio.o(i.GPIO_ResetBits) for GPIO_ResetBits
    mpu6050_i2c.o(i.IIC_Ack) refers to mpu6050_i2c.o(i.IIC_SDA_Out) for IIC_SDA_Out
    mpu6050_i2c.o(i.IIC_Ack) refers to mpu6050_i2c.o(i.IIC_Delay) for IIC_Delay
    mpu6050_i2c.o(i.IIC_Ack) refers to stm32f4xx_gpio.o(i.GPIO_SetBits) for GPIO_SetBits
    mpu6050_i2c.o(i.IIC_GPIO_Init) refers to stm32f4xx_rcc.o(i.RCC_AHB1PeriphClockCmd) for RCC_AHB1PeriphClockCmd
    mpu6050_i2c.o(i.IIC_GPIO_Init) refers to stm32f4xx_gpio.o(i.GPIO_Init) for GPIO_Init
    mpu6050_i2c.o(i.IIC_ReadBit) refers to mpu6050_i2c.o(i.IIC_SDA_In) for IIC_SDA_In
    mpu6050_i2c.o(i.IIC_ReadBit) refers to mpu6050_i2c.o(i.IIC_Delay) for IIC_Delay
    mpu6050_i2c.o(i.IIC_ReadBit) refers to stm32f4xx_gpio.o(i.GPIO_ResetBits) for GPIO_ResetBits
    mpu6050_i2c.o(i.IIC_ReadBit) refers to stm32f4xx_gpio.o(i.GPIO_SetBits) for GPIO_SetBits
    mpu6050_i2c.o(i.IIC_ReadBit) refers to stm32f4xx_gpio.o(i.GPIO_ReadInputDataBit) for GPIO_ReadInputDataBit
    mpu6050_i2c.o(i.IIC_ReadData) refers to mpu6050_i2c.o(i.IIC_Start) for IIC_Start
    mpu6050_i2c.o(i.IIC_ReadData) refers to printfa.o(i.__0printf) for __2printf
    mpu6050_i2c.o(i.IIC_ReadData) refers to mpu6050_i2c.o(i.IIC_WriteBit) for IIC_WriteBit
    mpu6050_i2c.o(i.IIC_ReadData) refers to mpu6050_i2c.o(i.IIC_WaitAck) for IIC_WaitAck
    mpu6050_i2c.o(i.IIC_ReadData) refers to mpu6050_i2c.o(i.IIC_ReadBit) for IIC_ReadBit
    mpu6050_i2c.o(i.IIC_ReadData) refers to mpu6050_i2c.o(i.IIC_Ack) for IIC_Ack
    mpu6050_i2c.o(i.IIC_ReadData) refers to mpu6050_i2c.o(i.IIC_Stop) for IIC_Stop
    mpu6050_i2c.o(i.IIC_SDA_In) refers to stm32f4xx_gpio.o(i.GPIO_Init) for GPIO_Init
    mpu6050_i2c.o(i.IIC_SDA_Out) refers to stm32f4xx_gpio.o(i.GPIO_Init) for GPIO_Init
    mpu6050_i2c.o(i.IIC_Start) refers to mpu6050_i2c.o(i.IIC_SDA_Out) for IIC_SDA_Out
    mpu6050_i2c.o(i.IIC_Start) refers to stm32f4xx_gpio.o(i.GPIO_SetBits) for GPIO_SetBits
    mpu6050_i2c.o(i.IIC_Start) refers to stm32f4xx_gpio.o(i.GPIO_ReadInputDataBit) for GPIO_ReadInputDataBit
    mpu6050_i2c.o(i.IIC_Start) refers to printfa.o(i.__0printf) for __2printf
    mpu6050_i2c.o(i.IIC_Start) refers to mpu6050_i2c.o(i.IIC_Delay) for IIC_Delay
    mpu6050_i2c.o(i.IIC_Start) refers to stm32f4xx_gpio.o(i.GPIO_ResetBits) for GPIO_ResetBits
    mpu6050_i2c.o(i.IIC_Stop) refers to mpu6050_i2c.o(i.IIC_SDA_Out) for IIC_SDA_Out
    mpu6050_i2c.o(i.IIC_Stop) refers to stm32f4xx_gpio.o(i.GPIO_ResetBits) for GPIO_ResetBits
    mpu6050_i2c.o(i.IIC_Stop) refers to mpu6050_i2c.o(i.IIC_Delay) for IIC_Delay
    mpu6050_i2c.o(i.IIC_Stop) refers to stm32f4xx_gpio.o(i.GPIO_SetBits) for GPIO_SetBits
    mpu6050_i2c.o(i.IIC_WaitAck) refers to mpu6050_i2c.o(i.IIC_SDA_In) for IIC_SDA_In
    mpu6050_i2c.o(i.IIC_WaitAck) refers to stm32f4xx_gpio.o(i.GPIO_SetBits) for GPIO_SetBits
    mpu6050_i2c.o(i.IIC_WaitAck) refers to mpu6050_i2c.o(i.IIC_Delay) for IIC_Delay
    mpu6050_i2c.o(i.IIC_WaitAck) refers to mpu6050_i2c.o(i.IIC_Stop) for IIC_Stop
    mpu6050_i2c.o(i.IIC_WaitAck) refers to stm32f4xx_gpio.o(i.GPIO_ReadInputDataBit) for GPIO_ReadInputDataBit
    mpu6050_i2c.o(i.IIC_WaitAck) refers to printfa.o(i.__0printf) for __2printf
    mpu6050_i2c.o(i.IIC_WaitAck) refers to stm32f4xx_gpio.o(i.GPIO_ResetBits) for GPIO_ResetBits
    mpu6050_i2c.o(i.IIC_WriteBit) refers to mpu6050_i2c.o(i.IIC_SDA_Out) for IIC_SDA_Out
    mpu6050_i2c.o(i.IIC_WriteBit) refers to stm32f4xx_gpio.o(i.GPIO_ResetBits) for GPIO_ResetBits
    mpu6050_i2c.o(i.IIC_WriteBit) refers to stm32f4xx_gpio.o(i.GPIO_SetBits) for GPIO_SetBits
    mpu6050_i2c.o(i.IIC_WriteBit) refers to mpu6050_i2c.o(i.IIC_Delay) for IIC_Delay
    mpu6050_i2c.o(i.IIC_WriteData) refers to mpu6050_i2c.o(i.IIC_Start) for IIC_Start
    mpu6050_i2c.o(i.IIC_WriteData) refers to printfa.o(i.__0printf) for __2printf
    mpu6050_i2c.o(i.IIC_WriteData) refers to mpu6050_i2c.o(i.IIC_WriteBit) for IIC_WriteBit
    mpu6050_i2c.o(i.IIC_WriteData) refers to mpu6050_i2c.o(i.IIC_WaitAck) for IIC_WaitAck
    mpu6050_i2c.o(i.IIC_WriteData) refers to mpu6050_i2c.o(i.IIC_Stop) for IIC_Stop
    euler.o(i.init_euler) refers to mpu6500.o(i.MPU6500_Read) for MPU6500_Read
    euler.o(i.init_euler) refers to delay.o(i.delay_ms) for delay_ms
    euler.o(i.init_euler) refers to f2d.o(.text) for __aeabi_f2d
    euler.o(i.init_euler) refers to sqrt.o(i.__hardfp_sqrt) for __hardfp_sqrt
    euler.o(i.init_euler) refers to ddiv.o(.text) for __aeabi_ddiv
    euler.o(i.init_euler) refers to d2f.o(.text) for __aeabi_d2f
    euler.o(i.init_euler) refers to atan2.o(i.__hardfp_atan2) for __hardfp_atan2
    euler.o(i.init_euler) refers to asin.o(i.__hardfp_asin) for __hardfp_asin
    euler.o(i.init_euler) refers to mpu6500.o(.bss) for mpu6500_real_data
    euler.o(i.init_euler) refers to euler.o(.data) for Roll
    euler.o(i.update_euler) refers to f2d.o(.text) for __aeabi_f2d
    euler.o(i.update_euler) refers to sin.o(i.__hardfp_sin) for __hardfp_sin
    euler.o(i.update_euler) refers to d2f.o(.text) for __aeabi_d2f
    euler.o(i.update_euler) refers to cos.o(i.__hardfp_cos) for __hardfp_cos
    euler.o(i.update_euler) refers to mpu6500.o(i.MPU6500_Read) for MPU6500_Read
    euler.o(i.update_euler) refers to euler.o(i.invSqrt) for invSqrt
    euler.o(i.update_euler) refers to euler.o(.data) for Roll
    euler.o(i.update_euler) refers to mpu6500.o(.bss) for mpu6500_real_data
    frame.o(i.crc16Check) refers to frame.o(.constdata) for CRC16_Table
    frame.o(i.crc8Check) refers to frame.o(.constdata) for CRC8_Table
    frame.o(i.packFrame) refers to memcpya.o(.text) for __aeabi_memcpy
    frame.o(i.packFrame) refers to frame.o(i.crc8Check) for crc8Check
    frame.o(i.unpackFrame) refers to memcpya.o(.text) for __aeabi_memcpy
    frame.o(i.unpackFrame) refers to frame.o(i.crc8Check) for crc8Check
    usart3.o(i.DMA1_Stream1_IRQHandler) refers to stm32f4xx_dma.o(i.DMA_GetITStatus) for DMA_GetITStatus
    usart3.o(i.DMA1_Stream1_IRQHandler) refers to stm32f4xx_dma.o(i.DMA_ClearFlag) for DMA_ClearFlag
    usart3.o(i.DMA1_Stream1_IRQHandler) refers to stm32f4xx_dma.o(i.DMA_ClearITPendingBit) for DMA_ClearITPendingBit
    usart3.o(i.USART3_DMA_Init) refers to stm32f4xx_rcc.o(i.RCC_AHB1PeriphClockCmd) for RCC_AHB1PeriphClockCmd
    usart3.o(i.USART3_DMA_Init) refers to stm32f4xx_rcc.o(i.RCC_APB1PeriphClockCmd) for RCC_APB1PeriphClockCmd
    usart3.o(i.USART3_DMA_Init) refers to stm32f4xx_gpio.o(i.GPIO_PinAFConfig) for GPIO_PinAFConfig
    usart3.o(i.USART3_DMA_Init) refers to stm32f4xx_gpio.o(i.GPIO_Init) for GPIO_Init
    usart3.o(i.USART3_DMA_Init) refers to stm32f4xx_usart.o(i.USART_DeInit) for USART_DeInit
    usart3.o(i.USART3_DMA_Init) refers to stm32f4xx_usart.o(i.USART_Init) for USART_Init
    usart3.o(i.USART3_DMA_Init) refers to stm32f4xx_usart.o(i.USART_Cmd) for USART_Cmd
    usart3.o(i.USART3_DMA_Init) refers to stm32f4xx_usart.o(i.USART_DMACmd) for USART_DMACmd
    usart3.o(i.USART3_DMA_Init) refers to misc.o(i.NVIC_Init) for NVIC_Init
    usart3.o(i.USART3_DMA_Init) refers to stm32f4xx_dma.o(i.DMA_DeInit) for DMA_DeInit
    usart3.o(i.USART3_DMA_Init) refers to stm32f4xx_dma.o(i.DMA_Init) for DMA_Init
    usart3.o(i.USART3_DMA_Init) refers to stm32f4xx_dma.o(i.DMA_ITConfig) for DMA_ITConfig
    usart3.o(i.USART3_DMA_Init) refers to stm32f4xx_dma.o(i.DMA_Cmd) for DMA_Cmd
    usart3.o(i.USART3_DMA_Init) refers to usart3.o(.bss) for USART_RX_BUF3
    laser.o(i.Laser_Configuration) refers to stm32f4xx_rcc.o(i.RCC_AHB1PeriphClockCmd) for RCC_AHB1PeriphClockCmd
    laser.o(i.Laser_Configuration) refers to stm32f4xx_gpio.o(i.GPIO_Init) for GPIO_Init
    laser.o(i.Laser_Configuration) refers to stm32f4xx_gpio.o(i.GPIO_ResetBits) for GPIO_ResetBits
    buzzer.o(i.Buzzer_Init) refers to stm32f4xx_rcc.o(i.RCC_APB1PeriphClockCmd) for RCC_APB1PeriphClockCmd
    buzzer.o(i.Buzzer_Init) refers to stm32f4xx_rcc.o(i.RCC_AHB1PeriphClockCmd) for RCC_AHB1PeriphClockCmd
    buzzer.o(i.Buzzer_Init) refers to stm32f4xx_gpio.o(i.GPIO_PinAFConfig) for GPIO_PinAFConfig
    buzzer.o(i.Buzzer_Init) refers to stm32f4xx_gpio.o(i.GPIO_Init) for GPIO_Init
    buzzer.o(i.Buzzer_Init) refers to stm32f4xx_tim.o(i.TIM_ITConfig) for TIM_ITConfig
    buzzer.o(i.Buzzer_Init) refers to stm32f4xx_tim.o(i.TIM_TimeBaseInit) for TIM_TimeBaseInit
    buzzer.o(i.Buzzer_Init) refers to stm32f4xx_tim.o(i.TIM_OC1Init) for TIM_OC1Init
    buzzer.o(i.Buzzer_Init) refers to stm32f4xx_tim.o(i.TIM_OC1PreloadConfig) for TIM_OC1PreloadConfig
    buzzer.o(i.Buzzer_Init) refers to stm32f4xx_tim.o(i.TIM_ARRPreloadConfig) for TIM_ARRPreloadConfig
    buzzer.o(i.Buzzer_Init) refers to stm32f4xx_tim.o(i.TIM_Cmd) for TIM_Cmd
    buzzer.o(i.Buzzer_Init) refers to stm32f4xx_tim.o(i.TIM_SetCompare1) for TIM_SetCompare1
    buzzer.o(i.Buzzer_toggle) refers to stm32f4xx_tim.o(i.TIM_SetCompare1) for TIM_SetCompare1
    buzzer.o(i.Buzzer_toggle) refers to delay.o(i.delay_ms) for delay_ms
    adc.o(i.Adc_Init) refers to stm32f4xx_rcc.o(i.RCC_AHB1PeriphClockCmd) for RCC_AHB1PeriphClockCmd
    adc.o(i.Adc_Init) refers to stm32f4xx_rcc.o(i.RCC_APB2PeriphClockCmd) for RCC_APB2PeriphClockCmd
    adc.o(i.Adc_Init) refers to stm32f4xx_gpio.o(i.GPIO_Init) for GPIO_Init
    adc.o(i.Adc_Init) refers to stm32f4xx_rcc.o(i.RCC_APB2PeriphResetCmd) for RCC_APB2PeriphResetCmd
    adc.o(i.Adc_Init) refers to stm32f4xx_adc.o(i.ADC_CommonInit) for ADC_CommonInit
    adc.o(i.Adc_Init) refers to stm32f4xx_adc.o(i.ADC_Init) for ADC_Init
    adc.o(i.Adc_Init) refers to stm32f4xx_adc.o(i.ADC_Cmd) for ADC_Cmd
    adc.o(i.Get_Adc) refers to stm32f4xx_adc.o(i.ADC_RegularChannelConfig) for ADC_RegularChannelConfig
    adc.o(i.Get_Adc) refers to stm32f4xx_adc.o(i.ADC_SoftwareStartConv) for ADC_SoftwareStartConv
    adc.o(i.Get_Adc) refers to stm32f4xx_adc.o(i.ADC_GetFlagStatus) for ADC_GetFlagStatus
    adc.o(i.Get_Adc) refers to stm32f4xx_adc.o(i.ADC_GetConversionValue) for ADC_GetConversionValue
    adc.o(i.Get_Adc_Average) refers to adc.o(i.Get_Adc) for Get_Adc
    adc.o(i.Get_Adc_Average) refers to delay.o(i.delay_ms) for delay_ms
    cylinder.o(i.Cylinder_Configuration) refers to stm32f4xx_rcc.o(i.RCC_AHB1PeriphClockCmd) for RCC_AHB1PeriphClockCmd
    cylinder.o(i.Cylinder_Configuration) refers to stm32f4xx_gpio.o(i.GPIO_Init) for GPIO_Init
    cylinder.o(i.Cylinder_Configuration) refers to stm32f4xx_gpio.o(i.GPIO_ResetBits) for GPIO_ResetBits
    infrared.o(i.Infrared_Configuration) refers to stm32f4xx_rcc.o(i.RCC_AHB1PeriphClockCmd) for RCC_AHB1PeriphClockCmd
    infrared.o(i.Infrared_Configuration) refers to stm32f4xx_gpio.o(i.GPIO_Init) for GPIO_Init
    infrared.o(i.Infrared_Configuration) refers to stm32f4xx_gpio.o(i.GPIO_SetBits) for GPIO_SetBits
    catchbullet.o(i.AutoCatch_CatchBullet) refers to catchbullet.o(i.RotateSpeedcal) for RotateSpeedcal
    catchbullet.o(i.AutoCatch_CatchBullet) refers to catchbullet.o(i.LiftPosSpeedcal) for LiftPosSpeedcal
    catchbullet.o(i.AutoCatch_CatchBullet) refers to can.o(i.CAN2_Send_Bottom) for CAN2_Send_Bottom
    catchbullet.o(i.AutoCatch_CatchBullet) refers to catchbullet.o(.data) for RotateFlag
    catchbullet.o(i.AutoCatch_CatchBullet) refers to can.o(.data) for current_angle_202
    catchbullet.o(i.LiftPosSpeedcal) refers to pid.o(i.PID_Driver) for PID_Driver
    catchbullet.o(i.LiftPosSpeedcal) refers to catchbullet.o(i.Lift_Legalize) for Lift_Legalize
    catchbullet.o(i.LiftPosSpeedcal) refers to catchbullet.o(.data) for setangle1
    catchbullet.o(i.LiftPosSpeedcal) refers to can.o(.data) for current_angle_201
    catchbullet.o(i.LiftPosSpeedcal) refers to catchbullet.o(.bss) for CatchLiftPOSPid1
    catchbullet.o(i.LiftSpeedcal) refers to catchbullet.o(i.Lift_Legalize) for Lift_Legalize
    catchbullet.o(i.LiftSpeedcal) refers to pid.o(i.PID_Driver) for PID_Driver
    catchbullet.o(i.LiftSpeedcal) refers to catchbullet.o(.data) for liftspeed1
    catchbullet.o(i.LiftSpeedcal) refers to catchbullet.o(.bss) for CatchLiftPid1
    catchbullet.o(i.LiftSpeedcal) refers to can.o(.data) for can2_current_speed201
    catchbullet.o(i.RotateSpeedcal) refers to pid.o(i.PID_Driver) for PID_Driver
    catchbullet.o(i.RotateSpeedcal) refers to catchbullet.o(i.Lift_Legalize) for Lift_Legalize
    catchbullet.o(i.RotateSpeedcal) refers to catchbullet.o(.bss) for CatchRotatePid
    catchbullet.o(i.RotateSpeedcal) refers to can.o(.data) for current_angle_202
    catchbullet.o(i.RotateSpeedcal) refers to catchbullet.o(.data) for setrotate
    catchbullet.o(i.catchbullet) refers to catchbullet.o(i.RotateSpeedcal) for RotateSpeedcal
    catchbullet.o(i.catchbullet) refers to catchbullet.o(i.LiftPosSpeedcal) for LiftPosSpeedcal
    catchbullet.o(i.catchbullet) refers to can.o(i.CAN2_Send_Bottom) for CAN2_Send_Bottom
    catchbullet.o(i.catchbullet) refers to catchbullet.o(.data) for count1
    catchbullet.o(i.catchbullet) refers to can.o(.data) for current_angle_202
    catchbullet.o(i.catchfinish) refers to stm32f4xx_gpio.o(i.GPIO_ResetBits) for GPIO_ResetBits
    catchbullet.o(i.catchinit) refers to stm32f4xx_rcc.o(i.RCC_AHB1PeriphClockCmd) for RCC_AHB1PeriphClockCmd
    catchbullet.o(i.catchinit) refers to stm32f4xx_gpio.o(i.GPIO_Init) for GPIO_Init
    catchbullet.o(i.catchinit) refers to stm32f4xx_gpio.o(i.GPIO_SetBits) for GPIO_SetBits
    catchbullet.o(i.catchinit) refers to pid.o(i.PID_Init) for PID_Init
    catchbullet.o(i.catchinit) refers to pid.o(i.SetPIDCR) for SetPIDCR
    catchbullet.o(i.catchinit) refers to catchbullet.o(.bss) for CatchRotatePid
    catchbullet.o(i.catchstart) refers to stm32f4xx_gpio.o(i.GPIO_SetBits) for GPIO_SetBits
    catchbullet.o(i.catchtest) refers to printfa.o(i.__0printf) for __2printf
    catchbullet.o(i.catchtest) refers to can.o(.data) for can2_current_speed201
    catchbullet.o(i.flift) refers to catchbullet.o(.data) for setangle1
    catchbullet.o(i.fliftdown) refers to catchbullet.o(i.LiftPosSpeedcal) for LiftPosSpeedcal
    catchbullet.o(i.fliftdown) refers to catchbullet.o(.data) for setangle1
    catchbullet.o(i.liftinit) refers to pid.o(i.PID_Init) for PID_Init
    catchbullet.o(i.liftinit) refers to pid.o(i.SetPIDCR) for SetPIDCR
    catchbullet.o(i.liftinit) refers to can.o(i.CAN2_Send_Bottom) for CAN2_Send_Bottom
    catchbullet.o(i.liftinit) refers to catchbullet.o(.bss) for CatchLiftPid1
    catchbullet.o(i.movebackward) refers to stm32f4xx_gpio.o(i.GPIO_ResetBits) for GPIO_ResetBits
    catchbullet.o(i.moveforward) refers to stm32f4xx_gpio.o(i.GPIO_SetBits) for GPIO_SetBits
    catchbullet.o(i.moveinit) refers to stm32f4xx_rcc.o(i.RCC_AHB1PeriphClockCmd) for RCC_AHB1PeriphClockCmd
    catchbullet.o(i.moveinit) refers to stm32f4xx_gpio.o(i.GPIO_Init) for GPIO_Init
    catchbullet.o(i.moveinit) refers to stm32f4xx_gpio.o(i.GPIO_ResetBits) for GPIO_ResetBits
    pwm.o(i.TIM8_PWM_Init) refers to stm32f4xx_rcc.o(i.RCC_APB2PeriphClockCmd) for RCC_APB2PeriphClockCmd
    pwm.o(i.TIM8_PWM_Init) refers to stm32f4xx_rcc.o(i.RCC_AHB1PeriphClockCmd) for RCC_AHB1PeriphClockCmd
    pwm.o(i.TIM8_PWM_Init) refers to stm32f4xx_gpio.o(i.GPIO_PinAFConfig) for GPIO_PinAFConfig
    pwm.o(i.TIM8_PWM_Init) refers to stm32f4xx_gpio.o(i.GPIO_Init) for GPIO_Init
    pwm.o(i.TIM8_PWM_Init) refers to stm32f4xx_tim.o(i.TIM_ITConfig) for TIM_ITConfig
    pwm.o(i.TIM8_PWM_Init) refers to stm32f4xx_tim.o(i.TIM_TimeBaseInit) for TIM_TimeBaseInit
    pwm.o(i.TIM8_PWM_Init) refers to stm32f4xx_tim.o(i.TIM_OC1Init) for TIM_OC1Init
    pwm.o(i.TIM8_PWM_Init) refers to stm32f4xx_tim.o(i.TIM_OC2Init) for TIM_OC2Init
    pwm.o(i.TIM8_PWM_Init) refers to stm32f4xx_tim.o(i.TIM_OC1PreloadConfig) for TIM_OC1PreloadConfig
    pwm.o(i.TIM8_PWM_Init) refers to stm32f4xx_tim.o(i.TIM_OC2PreloadConfig) for TIM_OC2PreloadConfig
    pwm.o(i.TIM8_PWM_Init) refers to stm32f4xx_tim.o(i.TIM_ARRPreloadConfig) for TIM_ARRPreloadConfig
    pwm.o(i.TIM8_PWM_Init) refers to stm32f4xx_tim.o(i.TIM_CtrlPWMOutputs) for TIM_CtrlPWMOutputs
    pwm.o(i.TIM8_PWM_Init) refers to stm32f4xx_tim.o(i.TIM_Cmd) for TIM_Cmd
    stm32f4xx_adc.o(i.ADC_DeInit) refers to stm32f4xx_rcc.o(i.RCC_APB2PeriphResetCmd) for RCC_APB2PeriphResetCmd
    stm32f4xx_can.o(i.CAN_DeInit) refers to stm32f4xx_rcc.o(i.RCC_APB1PeriphResetCmd) for RCC_APB1PeriphResetCmd
    stm32f4xx_can.o(i.CAN_GetITStatus) refers to stm32f4xx_can.o(i.CheckITStatus) for CheckITStatus
    stm32f4xx_cryp.o(i.CRYP_DeInit) refers to stm32f4xx_rcc.o(i.RCC_AHB2PeriphResetCmd) for RCC_AHB2PeriphResetCmd
    stm32f4xx_cryp_aes.o(i.CRYP_AES_CBC) refers to stm32f4xx_cryp.o(i.CRYP_KeyStructInit) for CRYP_KeyStructInit
    stm32f4xx_cryp_aes.o(i.CRYP_AES_CBC) refers to stm32f4xx_cryp.o(i.CRYP_FIFOFlush) for CRYP_FIFOFlush
    stm32f4xx_cryp_aes.o(i.CRYP_AES_CBC) refers to stm32f4xx_cryp.o(i.CRYP_Init) for CRYP_Init
    stm32f4xx_cryp_aes.o(i.CRYP_AES_CBC) refers to stm32f4xx_cryp.o(i.CRYP_KeyInit) for CRYP_KeyInit
    stm32f4xx_cryp_aes.o(i.CRYP_AES_CBC) refers to stm32f4xx_cryp.o(i.CRYP_Cmd) for CRYP_Cmd
    stm32f4xx_cryp_aes.o(i.CRYP_AES_CBC) refers to stm32f4xx_cryp.o(i.CRYP_GetFlagStatus) for CRYP_GetFlagStatus
    stm32f4xx_cryp_aes.o(i.CRYP_AES_CBC) refers to stm32f4xx_cryp.o(i.CRYP_IVInit) for CRYP_IVInit
    stm32f4xx_cryp_aes.o(i.CRYP_AES_CBC) refers to stm32f4xx_cryp.o(i.CRYP_DataIn) for CRYP_DataIn
    stm32f4xx_cryp_aes.o(i.CRYP_AES_CBC) refers to stm32f4xx_cryp.o(i.CRYP_DataOut) for CRYP_DataOut
    stm32f4xx_cryp_aes.o(i.CRYP_AES_CTR) refers to stm32f4xx_cryp.o(i.CRYP_KeyStructInit) for CRYP_KeyStructInit
    stm32f4xx_cryp_aes.o(i.CRYP_AES_CTR) refers to stm32f4xx_cryp.o(i.CRYP_KeyInit) for CRYP_KeyInit
    stm32f4xx_cryp_aes.o(i.CRYP_AES_CTR) refers to stm32f4xx_cryp.o(i.CRYP_Init) for CRYP_Init
    stm32f4xx_cryp_aes.o(i.CRYP_AES_CTR) refers to stm32f4xx_cryp.o(i.CRYP_IVInit) for CRYP_IVInit
    stm32f4xx_cryp_aes.o(i.CRYP_AES_CTR) refers to stm32f4xx_cryp.o(i.CRYP_FIFOFlush) for CRYP_FIFOFlush
    stm32f4xx_cryp_aes.o(i.CRYP_AES_CTR) refers to stm32f4xx_cryp.o(i.CRYP_Cmd) for CRYP_Cmd
    stm32f4xx_cryp_aes.o(i.CRYP_AES_CTR) refers to stm32f4xx_cryp.o(i.CRYP_DataIn) for CRYP_DataIn
    stm32f4xx_cryp_aes.o(i.CRYP_AES_CTR) refers to stm32f4xx_cryp.o(i.CRYP_GetFlagStatus) for CRYP_GetFlagStatus
    stm32f4xx_cryp_aes.o(i.CRYP_AES_CTR) refers to stm32f4xx_cryp.o(i.CRYP_DataOut) for CRYP_DataOut
    stm32f4xx_cryp_aes.o(i.CRYP_AES_ECB) refers to stm32f4xx_cryp.o(i.CRYP_KeyStructInit) for CRYP_KeyStructInit
    stm32f4xx_cryp_aes.o(i.CRYP_AES_ECB) refers to stm32f4xx_cryp.o(i.CRYP_FIFOFlush) for CRYP_FIFOFlush
    stm32f4xx_cryp_aes.o(i.CRYP_AES_ECB) refers to stm32f4xx_cryp.o(i.CRYP_Init) for CRYP_Init
    stm32f4xx_cryp_aes.o(i.CRYP_AES_ECB) refers to stm32f4xx_cryp.o(i.CRYP_KeyInit) for CRYP_KeyInit
    stm32f4xx_cryp_aes.o(i.CRYP_AES_ECB) refers to stm32f4xx_cryp.o(i.CRYP_Cmd) for CRYP_Cmd
    stm32f4xx_cryp_aes.o(i.CRYP_AES_ECB) refers to stm32f4xx_cryp.o(i.CRYP_GetFlagStatus) for CRYP_GetFlagStatus
    stm32f4xx_cryp_aes.o(i.CRYP_AES_ECB) refers to stm32f4xx_cryp.o(i.CRYP_DataIn) for CRYP_DataIn
    stm32f4xx_cryp_aes.o(i.CRYP_AES_ECB) refers to stm32f4xx_cryp.o(i.CRYP_DataOut) for CRYP_DataOut
    stm32f4xx_cryp_des.o(i.CRYP_DES_CBC) refers to stm32f4xx_cryp.o(i.CRYP_KeyStructInit) for CRYP_KeyStructInit
    stm32f4xx_cryp_des.o(i.CRYP_DES_CBC) refers to stm32f4xx_cryp.o(i.CRYP_Init) for CRYP_Init
    stm32f4xx_cryp_des.o(i.CRYP_DES_CBC) refers to stm32f4xx_cryp.o(i.CRYP_KeyInit) for CRYP_KeyInit
    stm32f4xx_cryp_des.o(i.CRYP_DES_CBC) refers to stm32f4xx_cryp.o(i.CRYP_IVInit) for CRYP_IVInit
    stm32f4xx_cryp_des.o(i.CRYP_DES_CBC) refers to stm32f4xx_cryp.o(i.CRYP_FIFOFlush) for CRYP_FIFOFlush
    stm32f4xx_cryp_des.o(i.CRYP_DES_CBC) refers to stm32f4xx_cryp.o(i.CRYP_Cmd) for CRYP_Cmd
    stm32f4xx_cryp_des.o(i.CRYP_DES_CBC) refers to stm32f4xx_cryp.o(i.CRYP_DataIn) for CRYP_DataIn
    stm32f4xx_cryp_des.o(i.CRYP_DES_CBC) refers to stm32f4xx_cryp.o(i.CRYP_GetFlagStatus) for CRYP_GetFlagStatus
    stm32f4xx_cryp_des.o(i.CRYP_DES_CBC) refers to stm32f4xx_cryp.o(i.CRYP_DataOut) for CRYP_DataOut
    stm32f4xx_cryp_des.o(i.CRYP_DES_ECB) refers to stm32f4xx_cryp.o(i.CRYP_KeyStructInit) for CRYP_KeyStructInit
    stm32f4xx_cryp_des.o(i.CRYP_DES_ECB) refers to stm32f4xx_cryp.o(i.CRYP_Init) for CRYP_Init
    stm32f4xx_cryp_des.o(i.CRYP_DES_ECB) refers to stm32f4xx_cryp.o(i.CRYP_KeyInit) for CRYP_KeyInit
    stm32f4xx_cryp_des.o(i.CRYP_DES_ECB) refers to stm32f4xx_cryp.o(i.CRYP_FIFOFlush) for CRYP_FIFOFlush
    stm32f4xx_cryp_des.o(i.CRYP_DES_ECB) refers to stm32f4xx_cryp.o(i.CRYP_Cmd) for CRYP_Cmd
    stm32f4xx_cryp_des.o(i.CRYP_DES_ECB) refers to stm32f4xx_cryp.o(i.CRYP_DataIn) for CRYP_DataIn
    stm32f4xx_cryp_des.o(i.CRYP_DES_ECB) refers to stm32f4xx_cryp.o(i.CRYP_GetFlagStatus) for CRYP_GetFlagStatus
    stm32f4xx_cryp_des.o(i.CRYP_DES_ECB) refers to stm32f4xx_cryp.o(i.CRYP_DataOut) for CRYP_DataOut
    stm32f4xx_cryp_tdes.o(i.CRYP_TDES_CBC) refers to stm32f4xx_cryp.o(i.CRYP_KeyStructInit) for CRYP_KeyStructInit
    stm32f4xx_cryp_tdes.o(i.CRYP_TDES_CBC) refers to stm32f4xx_cryp.o(i.CRYP_Init) for CRYP_Init
    stm32f4xx_cryp_tdes.o(i.CRYP_TDES_CBC) refers to stm32f4xx_cryp.o(i.CRYP_KeyInit) for CRYP_KeyInit
    stm32f4xx_cryp_tdes.o(i.CRYP_TDES_CBC) refers to stm32f4xx_cryp.o(i.CRYP_IVInit) for CRYP_IVInit
    stm32f4xx_cryp_tdes.o(i.CRYP_TDES_CBC) refers to stm32f4xx_cryp.o(i.CRYP_FIFOFlush) for CRYP_FIFOFlush
    stm32f4xx_cryp_tdes.o(i.CRYP_TDES_CBC) refers to stm32f4xx_cryp.o(i.CRYP_Cmd) for CRYP_Cmd
    stm32f4xx_cryp_tdes.o(i.CRYP_TDES_CBC) refers to stm32f4xx_cryp.o(i.CRYP_DataIn) for CRYP_DataIn
    stm32f4xx_cryp_tdes.o(i.CRYP_TDES_CBC) refers to stm32f4xx_cryp.o(i.CRYP_GetFlagStatus) for CRYP_GetFlagStatus
    stm32f4xx_cryp_tdes.o(i.CRYP_TDES_CBC) refers to stm32f4xx_cryp.o(i.CRYP_DataOut) for CRYP_DataOut
    stm32f4xx_cryp_tdes.o(i.CRYP_TDES_ECB) refers to stm32f4xx_cryp.o(i.CRYP_KeyStructInit) for CRYP_KeyStructInit
    stm32f4xx_cryp_tdes.o(i.CRYP_TDES_ECB) refers to stm32f4xx_cryp.o(i.CRYP_Init) for CRYP_Init
    stm32f4xx_cryp_tdes.o(i.CRYP_TDES_ECB) refers to stm32f4xx_cryp.o(i.CRYP_KeyInit) for CRYP_KeyInit
    stm32f4xx_cryp_tdes.o(i.CRYP_TDES_ECB) refers to stm32f4xx_cryp.o(i.CRYP_FIFOFlush) for CRYP_FIFOFlush
    stm32f4xx_cryp_tdes.o(i.CRYP_TDES_ECB) refers to stm32f4xx_cryp.o(i.CRYP_Cmd) for CRYP_Cmd
    stm32f4xx_cryp_tdes.o(i.CRYP_TDES_ECB) refers to stm32f4xx_cryp.o(i.CRYP_DataIn) for CRYP_DataIn
    stm32f4xx_cryp_tdes.o(i.CRYP_TDES_ECB) refers to stm32f4xx_cryp.o(i.CRYP_GetFlagStatus) for CRYP_GetFlagStatus
    stm32f4xx_cryp_tdes.o(i.CRYP_TDES_ECB) refers to stm32f4xx_cryp.o(i.CRYP_DataOut) for CRYP_DataOut
    stm32f4xx_dac.o(i.DAC_DeInit) refers to stm32f4xx_rcc.o(i.RCC_APB1PeriphResetCmd) for RCC_APB1PeriphResetCmd
    stm32f4xx_flash.o(i.FLASH_EraseAllSectors) refers to stm32f4xx_flash.o(i.FLASH_WaitForLastOperation) for FLASH_WaitForLastOperation
    stm32f4xx_flash.o(i.FLASH_EraseSector) refers to stm32f4xx_flash.o(i.FLASH_WaitForLastOperation) for FLASH_WaitForLastOperation
    stm32f4xx_flash.o(i.FLASH_OB_Launch) refers to stm32f4xx_flash.o(i.FLASH_WaitForLastOperation) for FLASH_WaitForLastOperation
    stm32f4xx_flash.o(i.FLASH_OB_RDPConfig) refers to stm32f4xx_flash.o(i.FLASH_WaitForLastOperation) for FLASH_WaitForLastOperation
    stm32f4xx_flash.o(i.FLASH_OB_UserConfig) refers to stm32f4xx_flash.o(i.FLASH_WaitForLastOperation) for FLASH_WaitForLastOperation
    stm32f4xx_flash.o(i.FLASH_OB_WRPConfig) refers to stm32f4xx_flash.o(i.FLASH_WaitForLastOperation) for FLASH_WaitForLastOperation
    stm32f4xx_flash.o(i.FLASH_ProgramByte) refers to stm32f4xx_flash.o(i.FLASH_WaitForLastOperation) for FLASH_WaitForLastOperation
    stm32f4xx_flash.o(i.FLASH_ProgramDoubleWord) refers to stm32f4xx_flash.o(i.FLASH_WaitForLastOperation) for FLASH_WaitForLastOperation
    stm32f4xx_flash.o(i.FLASH_ProgramHalfWord) refers to stm32f4xx_flash.o(i.FLASH_WaitForLastOperation) for FLASH_WaitForLastOperation
    stm32f4xx_flash.o(i.FLASH_ProgramWord) refers to stm32f4xx_flash.o(i.FLASH_WaitForLastOperation) for FLASH_WaitForLastOperation
    stm32f4xx_flash.o(i.FLASH_WaitForLastOperation) refers to stm32f4xx_flash.o(i.FLASH_GetStatus) for FLASH_GetStatus
    stm32f4xx_gpio.o(i.GPIO_DeInit) refers to stm32f4xx_rcc.o(i.RCC_AHB1PeriphResetCmd) for RCC_AHB1PeriphResetCmd
    stm32f4xx_hash.o(i.HASH_DeInit) refers to stm32f4xx_rcc.o(i.RCC_AHB2PeriphResetCmd) for RCC_AHB2PeriphResetCmd
    stm32f4xx_hash_md5.o(i.HASH_MD5) refers to stm32f4xx_hash.o(i.HASH_DeInit) for HASH_DeInit
    stm32f4xx_hash_md5.o(i.HASH_MD5) refers to stm32f4xx_hash.o(i.HASH_Init) for HASH_Init
    stm32f4xx_hash_md5.o(i.HASH_MD5) refers to stm32f4xx_hash.o(i.HASH_SetLastWordValidBitsNbr) for HASH_SetLastWordValidBitsNbr
    stm32f4xx_hash_md5.o(i.HASH_MD5) refers to stm32f4xx_hash.o(i.HASH_DataIn) for HASH_DataIn
    stm32f4xx_hash_md5.o(i.HASH_MD5) refers to stm32f4xx_hash.o(i.HASH_StartDigest) for HASH_StartDigest
    stm32f4xx_hash_md5.o(i.HASH_MD5) refers to stm32f4xx_hash.o(i.HASH_GetFlagStatus) for HASH_GetFlagStatus
    stm32f4xx_hash_md5.o(i.HASH_MD5) refers to stm32f4xx_hash.o(i.HASH_GetDigest) for HASH_GetDigest
    stm32f4xx_hash_md5.o(i.HMAC_MD5) refers to stm32f4xx_hash.o(i.HASH_DeInit) for HASH_DeInit
    stm32f4xx_hash_md5.o(i.HMAC_MD5) refers to stm32f4xx_hash.o(i.HASH_Init) for HASH_Init
    stm32f4xx_hash_md5.o(i.HMAC_MD5) refers to stm32f4xx_hash.o(i.HASH_SetLastWordValidBitsNbr) for HASH_SetLastWordValidBitsNbr
    stm32f4xx_hash_md5.o(i.HMAC_MD5) refers to stm32f4xx_hash.o(i.HASH_DataIn) for HASH_DataIn
    stm32f4xx_hash_md5.o(i.HMAC_MD5) refers to stm32f4xx_hash.o(i.HASH_StartDigest) for HASH_StartDigest
    stm32f4xx_hash_md5.o(i.HMAC_MD5) refers to stm32f4xx_hash.o(i.HASH_GetFlagStatus) for HASH_GetFlagStatus
    stm32f4xx_hash_md5.o(i.HMAC_MD5) refers to stm32f4xx_hash.o(i.HASH_GetDigest) for HASH_GetDigest
    stm32f4xx_hash_sha1.o(i.HASH_SHA1) refers to stm32f4xx_hash.o(i.HASH_DeInit) for HASH_DeInit
    stm32f4xx_hash_sha1.o(i.HASH_SHA1) refers to stm32f4xx_hash.o(i.HASH_Init) for HASH_Init
    stm32f4xx_hash_sha1.o(i.HASH_SHA1) refers to stm32f4xx_hash.o(i.HASH_SetLastWordValidBitsNbr) for HASH_SetLastWordValidBitsNbr
    stm32f4xx_hash_sha1.o(i.HASH_SHA1) refers to stm32f4xx_hash.o(i.HASH_DataIn) for HASH_DataIn
    stm32f4xx_hash_sha1.o(i.HASH_SHA1) refers to stm32f4xx_hash.o(i.HASH_StartDigest) for HASH_StartDigest
    stm32f4xx_hash_sha1.o(i.HASH_SHA1) refers to stm32f4xx_hash.o(i.HASH_GetFlagStatus) for HASH_GetFlagStatus
    stm32f4xx_hash_sha1.o(i.HASH_SHA1) refers to stm32f4xx_hash.o(i.HASH_GetDigest) for HASH_GetDigest
    stm32f4xx_hash_sha1.o(i.HMAC_SHA1) refers to stm32f4xx_hash.o(i.HASH_DeInit) for HASH_DeInit
    stm32f4xx_hash_sha1.o(i.HMAC_SHA1) refers to stm32f4xx_hash.o(i.HASH_Init) for HASH_Init
    stm32f4xx_hash_sha1.o(i.HMAC_SHA1) refers to stm32f4xx_hash.o(i.HASH_SetLastWordValidBitsNbr) for HASH_SetLastWordValidBitsNbr
    stm32f4xx_hash_sha1.o(i.HMAC_SHA1) refers to stm32f4xx_hash.o(i.HASH_DataIn) for HASH_DataIn
    stm32f4xx_hash_sha1.o(i.HMAC_SHA1) refers to stm32f4xx_hash.o(i.HASH_StartDigest) for HASH_StartDigest
    stm32f4xx_hash_sha1.o(i.HMAC_SHA1) refers to stm32f4xx_hash.o(i.HASH_GetFlagStatus) for HASH_GetFlagStatus
    stm32f4xx_hash_sha1.o(i.HMAC_SHA1) refers to stm32f4xx_hash.o(i.HASH_GetDigest) for HASH_GetDigest
    stm32f4xx_i2c.o(i.I2C_DeInit) refers to stm32f4xx_rcc.o(i.RCC_APB1PeriphResetCmd) for RCC_APB1PeriphResetCmd
    stm32f4xx_i2c.o(i.I2C_Init) refers to stm32f4xx_rcc.o(i.RCC_GetClocksFreq) for RCC_GetClocksFreq
    stm32f4xx_pwr.o(i.PWR_DeInit) refers to stm32f4xx_rcc.o(i.RCC_APB1PeriphResetCmd) for RCC_APB1PeriphResetCmd
    stm32f4xx_rcc.o(i.RCC_GetClocksFreq) refers to stm32f4xx_rcc.o(.data) for APBAHBPrescTable
    stm32f4xx_rcc.o(i.RCC_WaitForHSEStartUp) refers to stm32f4xx_rcc.o(i.RCC_GetFlagStatus) for RCC_GetFlagStatus
    stm32f4xx_rng.o(i.RNG_DeInit) refers to stm32f4xx_rcc.o(i.RCC_AHB2PeriphResetCmd) for RCC_AHB2PeriphResetCmd
    stm32f4xx_rtc.o(i.RTC_CoarseCalibCmd) refers to stm32f4xx_rtc.o(i.RTC_EnterInitMode) for RTC_EnterInitMode
    stm32f4xx_rtc.o(i.RTC_CoarseCalibCmd) refers to stm32f4xx_rtc.o(i.RTC_ExitInitMode) for RTC_ExitInitMode
    stm32f4xx_rtc.o(i.RTC_CoarseCalibConfig) refers to stm32f4xx_rtc.o(i.RTC_EnterInitMode) for RTC_EnterInitMode
    stm32f4xx_rtc.o(i.RTC_CoarseCalibConfig) refers to stm32f4xx_rtc.o(i.RTC_ExitInitMode) for RTC_ExitInitMode
    stm32f4xx_rtc.o(i.RTC_DeInit) refers to stm32f4xx_rtc.o(i.RTC_EnterInitMode) for RTC_EnterInitMode
    stm32f4xx_rtc.o(i.RTC_DeInit) refers to stm32f4xx_rtc.o(i.RTC_WaitForSynchro) for RTC_WaitForSynchro
    stm32f4xx_rtc.o(i.RTC_GetAlarm) refers to stm32f4xx_rtc.o(i.RTC_Bcd2ToByte) for RTC_Bcd2ToByte
    stm32f4xx_rtc.o(i.RTC_GetDate) refers to stm32f4xx_rtc.o(i.RTC_Bcd2ToByte) for RTC_Bcd2ToByte
    stm32f4xx_rtc.o(i.RTC_GetTime) refers to stm32f4xx_rtc.o(i.RTC_Bcd2ToByte) for RTC_Bcd2ToByte
    stm32f4xx_rtc.o(i.RTC_GetTimeStamp) refers to stm32f4xx_rtc.o(i.RTC_Bcd2ToByte) for RTC_Bcd2ToByte
    stm32f4xx_rtc.o(i.RTC_Init) refers to stm32f4xx_rtc.o(i.RTC_EnterInitMode) for RTC_EnterInitMode
    stm32f4xx_rtc.o(i.RTC_Init) refers to stm32f4xx_rtc.o(i.RTC_ExitInitMode) for RTC_ExitInitMode
    stm32f4xx_rtc.o(i.RTC_RefClockCmd) refers to stm32f4xx_rtc.o(i.RTC_EnterInitMode) for RTC_EnterInitMode
    stm32f4xx_rtc.o(i.RTC_RefClockCmd) refers to stm32f4xx_rtc.o(i.RTC_ExitInitMode) for RTC_ExitInitMode
    stm32f4xx_rtc.o(i.RTC_SetAlarm) refers to stm32f4xx_rtc.o(i.RTC_Bcd2ToByte) for RTC_Bcd2ToByte
    stm32f4xx_rtc.o(i.RTC_SetAlarm) refers to stm32f4xx_rtc.o(i.RTC_ByteToBcd2) for RTC_ByteToBcd2
    stm32f4xx_rtc.o(i.RTC_SetDate) refers to stm32f4xx_rtc.o(i.RTC_Bcd2ToByte) for RTC_Bcd2ToByte
    stm32f4xx_rtc.o(i.RTC_SetDate) refers to stm32f4xx_rtc.o(i.RTC_ByteToBcd2) for RTC_ByteToBcd2
    stm32f4xx_rtc.o(i.RTC_SetDate) refers to stm32f4xx_rtc.o(i.RTC_EnterInitMode) for RTC_EnterInitMode
    stm32f4xx_rtc.o(i.RTC_SetDate) refers to stm32f4xx_rtc.o(i.RTC_ExitInitMode) for RTC_ExitInitMode
    stm32f4xx_rtc.o(i.RTC_SetDate) refers to stm32f4xx_rtc.o(i.RTC_WaitForSynchro) for RTC_WaitForSynchro
    stm32f4xx_rtc.o(i.RTC_SetTime) refers to stm32f4xx_rtc.o(i.RTC_Bcd2ToByte) for RTC_Bcd2ToByte
    stm32f4xx_rtc.o(i.RTC_SetTime) refers to stm32f4xx_rtc.o(i.RTC_ByteToBcd2) for RTC_ByteToBcd2
    stm32f4xx_rtc.o(i.RTC_SetTime) refers to stm32f4xx_rtc.o(i.RTC_EnterInitMode) for RTC_EnterInitMode
    stm32f4xx_rtc.o(i.RTC_SetTime) refers to stm32f4xx_rtc.o(i.RTC_ExitInitMode) for RTC_ExitInitMode
    stm32f4xx_rtc.o(i.RTC_SetTime) refers to stm32f4xx_rtc.o(i.RTC_WaitForSynchro) for RTC_WaitForSynchro
    stm32f4xx_rtc.o(i.RTC_SynchroShiftConfig) refers to stm32f4xx_rtc.o(i.RTC_WaitForSynchro) for RTC_WaitForSynchro
    stm32f4xx_sdio.o(i.SDIO_DeInit) refers to stm32f4xx_rcc.o(i.RCC_APB2PeriphResetCmd) for RCC_APB2PeriphResetCmd
    stm32f4xx_spi.o(i.SPI_I2S_DeInit) refers to stm32f4xx_rcc.o(i.RCC_APB2PeriphResetCmd) for RCC_APB2PeriphResetCmd
    stm32f4xx_spi.o(i.SPI_I2S_DeInit) refers to stm32f4xx_rcc.o(i.RCC_APB1PeriphResetCmd) for RCC_APB1PeriphResetCmd
    stm32f4xx_syscfg.o(i.SYSCFG_DeInit) refers to stm32f4xx_rcc.o(i.RCC_APB2PeriphResetCmd) for RCC_APB2PeriphResetCmd
    stm32f4xx_tim.o(i.TIM_DeInit) refers to stm32f4xx_rcc.o(i.RCC_APB2PeriphResetCmd) for RCC_APB2PeriphResetCmd
    stm32f4xx_tim.o(i.TIM_DeInit) refers to stm32f4xx_rcc.o(i.RCC_APB1PeriphResetCmd) for RCC_APB1PeriphResetCmd
    stm32f4xx_tim.o(i.TIM_ETRClockMode1Config) refers to stm32f4xx_tim.o(i.TIM_ETRConfig) for TIM_ETRConfig
    stm32f4xx_tim.o(i.TIM_ETRClockMode2Config) refers to stm32f4xx_tim.o(i.TIM_ETRConfig) for TIM_ETRConfig
    stm32f4xx_tim.o(i.TIM_ICInit) refers to stm32f4xx_tim.o(i.TI1_Config) for TI1_Config
    stm32f4xx_tim.o(i.TIM_ICInit) refers to stm32f4xx_tim.o(i.TIM_SetIC1Prescaler) for TIM_SetIC1Prescaler
    stm32f4xx_tim.o(i.TIM_ICInit) refers to stm32f4xx_tim.o(i.TI2_Config) for TI2_Config
    stm32f4xx_tim.o(i.TIM_ICInit) refers to stm32f4xx_tim.o(i.TIM_SetIC2Prescaler) for TIM_SetIC2Prescaler
    stm32f4xx_tim.o(i.TIM_ICInit) refers to stm32f4xx_tim.o(i.TI3_Config) for TI3_Config
    stm32f4xx_tim.o(i.TIM_ICInit) refers to stm32f4xx_tim.o(i.TIM_SetIC3Prescaler) for TIM_SetIC3Prescaler
    stm32f4xx_tim.o(i.TIM_ICInit) refers to stm32f4xx_tim.o(i.TI4_Config) for TI4_Config
    stm32f4xx_tim.o(i.TIM_ICInit) refers to stm32f4xx_tim.o(i.TIM_SetIC4Prescaler) for TIM_SetIC4Prescaler
    stm32f4xx_tim.o(i.TIM_ITRxExternalClockConfig) refers to stm32f4xx_tim.o(i.TIM_SelectInputTrigger) for TIM_SelectInputTrigger
    stm32f4xx_tim.o(i.TIM_PWMIConfig) refers to stm32f4xx_tim.o(i.TI1_Config) for TI1_Config
    stm32f4xx_tim.o(i.TIM_PWMIConfig) refers to stm32f4xx_tim.o(i.TIM_SetIC1Prescaler) for TIM_SetIC1Prescaler
    stm32f4xx_tim.o(i.TIM_PWMIConfig) refers to stm32f4xx_tim.o(i.TI2_Config) for TI2_Config
    stm32f4xx_tim.o(i.TIM_PWMIConfig) refers to stm32f4xx_tim.o(i.TIM_SetIC2Prescaler) for TIM_SetIC2Prescaler
    stm32f4xx_tim.o(i.TIM_TIxExternalClockConfig) refers to stm32f4xx_tim.o(i.TI2_Config) for TI2_Config
    stm32f4xx_tim.o(i.TIM_TIxExternalClockConfig) refers to stm32f4xx_tim.o(i.TI1_Config) for TI1_Config
    stm32f4xx_tim.o(i.TIM_TIxExternalClockConfig) refers to stm32f4xx_tim.o(i.TIM_SelectInputTrigger) for TIM_SelectInputTrigger
    stm32f4xx_usart.o(i.USART_DeInit) refers to stm32f4xx_rcc.o(i.RCC_APB2PeriphResetCmd) for RCC_APB2PeriphResetCmd
    stm32f4xx_usart.o(i.USART_DeInit) refers to stm32f4xx_rcc.o(i.RCC_APB1PeriphResetCmd) for RCC_APB1PeriphResetCmd
    stm32f4xx_usart.o(i.USART_Init) refers to stm32f4xx_rcc.o(i.RCC_GetClocksFreq) for RCC_GetClocksFreq
    stm32f4xx_wwdg.o(i.WWDG_DeInit) refers to stm32f4xx_rcc.o(i.RCC_APB1PeriphResetCmd) for RCC_APB1PeriphResetCmd
    system_stm32f4xx.o(i.SystemCoreClockUpdate) refers to system_stm32f4xx.o(.data) for SystemCoreClock
    system_stm32f4xx.o(i.SystemInit) refers to system_stm32f4xx.o(i.SetSysClock) for SetSysClock
    startup_stm32f4xx.o(RESET) refers to startup_stm32f4xx.o(STACK) for __initial_sp
    startup_stm32f4xx.o(RESET) refers to startup_stm32f4xx.o(.text) for Reset_Handler
    startup_stm32f4xx.o(RESET) refers to stm32f4xx_it.o(i.NMI_Handler) for NMI_Handler
    startup_stm32f4xx.o(RESET) refers to stm32f4xx_it.o(i.HardFault_Handler) for HardFault_Handler
    startup_stm32f4xx.o(RESET) refers to stm32f4xx_it.o(i.MemManage_Handler) for MemManage_Handler
    startup_stm32f4xx.o(RESET) refers to stm32f4xx_it.o(i.BusFault_Handler) for BusFault_Handler
    startup_stm32f4xx.o(RESET) refers to stm32f4xx_it.o(i.UsageFault_Handler) for UsageFault_Handler
    startup_stm32f4xx.o(RESET) refers to stm32f4xx_it.o(i.SVC_Handler) for SVC_Handler
    startup_stm32f4xx.o(RESET) refers to stm32f4xx_it.o(i.DebugMon_Handler) for DebugMon_Handler
    startup_stm32f4xx.o(RESET) refers to stm32f4xx_it.o(i.PendSV_Handler) for PendSV_Handler
    startup_stm32f4xx.o(RESET) refers to stm32f4xx_it.o(i.SysTick_Handler) for SysTick_Handler
    startup_stm32f4xx.o(RESET) refers to usart3.o(i.DMA1_Stream1_IRQHandler) for DMA1_Stream1_IRQHandler
    startup_stm32f4xx.o(RESET) refers to can.o(i.CAN1_RX0_IRQHandler) for CAN1_RX0_IRQHandler
    startup_stm32f4xx.o(RESET) refers to timer.o(i.TIM2_IRQHandler) for TIM2_IRQHandler
    startup_stm32f4xx.o(RESET) refers to timer.o(i.TIM5_IRQHandler) for TIM5_IRQHandler
    startup_stm32f4xx.o(RESET) refers to rc.o(i.DMA2_Stream2_IRQHandler) for DMA2_Stream2_IRQHandler
    startup_stm32f4xx.o(RESET) refers to can.o(i.CAN2_RX1_IRQHandler) for CAN2_RX1_IRQHandler
    startup_stm32f4xx.o(RESET) refers to usart6.o(i.USART6_IRQHandler) for USART6_IRQHandler
    startup_stm32f4xx.o(.text) refers to system_stm32f4xx.o(i.SystemInit) for SystemInit
    startup_stm32f4xx.o(.text) refers to entry.o(.ARM.Collect$$$$00000000) for __main
    asin.o(i.__hardfp_asin) refers (Special) to iusefp.o(.text) for __I$use$fp
    asin.o(i.__hardfp_asin) refers to dunder.o(i.__mathlib_dbl_infnan) for __mathlib_dbl_infnan
    asin.o(i.__hardfp_asin) refers to dmul.o(.text) for __aeabi_dmul
    asin.o(i.__hardfp_asin) refers to dadd.o(.text) for __aeabi_dadd
    asin.o(i.__hardfp_asin) refers to errno.o(i.__set_errno) for __set_errno
    asin.o(i.__hardfp_asin) refers to dunder.o(i.__mathlib_dbl_invalid) for __mathlib_dbl_invalid
    asin.o(i.__hardfp_asin) refers to fpclassify.o(i.__ARM_fpclassify) for __ARM_fpclassify
    asin.o(i.__hardfp_asin) refers to dunder.o(i.__mathlib_dbl_underflow) for __mathlib_dbl_underflow
    asin.o(i.__hardfp_asin) refers to poly.o(i.__kernel_poly) for __kernel_poly
    asin.o(i.__hardfp_asin) refers to ddiv.o(.text) for __aeabi_ddiv
    asin.o(i.__hardfp_asin) refers to fabs.o(i.fabs) for fabs
    asin.o(i.__hardfp_asin) refers to sqrt.o(i.sqrt) for sqrt
    asin.o(i.__hardfp_asin) refers to asin.o(.constdata) for .constdata
    asin.o(i.__softfp_asin) refers (Special) to iusefp.o(.text) for __I$use$fp
    asin.o(i.__softfp_asin) refers to asin.o(i.__hardfp_asin) for __hardfp_asin
    asin.o(i.asin) refers (Special) to iusefp.o(.text) for __I$use$fp
    asin.o(i.asin) refers to asin.o(i.__hardfp_asin) for __hardfp_asin
    asin.o(.constdata) refers (Special) to iusefp.o(.text) for __I$use$fp
    asin_x.o(i.____hardfp_asin$lsc) refers (Special) to iusefp.o(.text) for __I$use$fp
    asin_x.o(i.____hardfp_asin$lsc) refers to dunder.o(i.__mathlib_dbl_infnan) for __mathlib_dbl_infnan
    asin_x.o(i.____hardfp_asin$lsc) refers to dmul.o(.text) for __aeabi_dmul
    asin_x.o(i.____hardfp_asin$lsc) refers to dadd.o(.text) for __aeabi_dadd
    asin_x.o(i.____hardfp_asin$lsc) refers to errno.o(i.__set_errno) for __set_errno
    asin_x.o(i.____hardfp_asin$lsc) refers to poly.o(i.__kernel_poly) for __kernel_poly
    asin_x.o(i.____hardfp_asin$lsc) refers to ddiv.o(.text) for __aeabi_ddiv
    asin_x.o(i.____hardfp_asin$lsc) refers to fabs.o(i.fabs) for fabs
    asin_x.o(i.____hardfp_asin$lsc) refers to sqrt.o(i.sqrt) for sqrt
    asin_x.o(i.____hardfp_asin$lsc) refers to asin_x.o(.constdata) for .constdata
    asin_x.o(i.____softfp_asin$lsc) refers (Special) to iusefp.o(.text) for __I$use$fp
    asin_x.o(i.____softfp_asin$lsc) refers to asin_x.o(i.____hardfp_asin$lsc) for ____hardfp_asin$lsc
    asin_x.o(i.__asin$lsc) refers (Special) to iusefp.o(.text) for __I$use$fp
    asin_x.o(i.__asin$lsc) refers to asin_x.o(i.____hardfp_asin$lsc) for ____hardfp_asin$lsc
    asin_x.o(.constdata) refers (Special) to iusefp.o(.text) for __I$use$fp
    atan2.o(i.__hardfp_atan2) refers (Special) to iusefp.o(.text) for __I$use$fp
    atan2.o(i.__hardfp_atan2) refers to dunder.o(i.__mathlib_dbl_infnan2) for __mathlib_dbl_infnan2
    atan2.o(i.__hardfp_atan2) refers to atan.o(i.atan) for atan
    atan2.o(i.__hardfp_atan2) refers to ddiv.o(.text) for __aeabi_ddiv
    atan2.o(i.__hardfp_atan2) refers to fabs.o(i.fabs) for fabs
    atan2.o(i.__hardfp_atan2) refers to dadd.o(.text) for __aeabi_dsub
    atan2.o(i.__hardfp_atan2) refers to qnan.o(.constdata) for __mathlib_zero
    atan2.o(i.__softfp_atan2) refers (Special) to iusefp.o(.text) for __I$use$fp
    atan2.o(i.__softfp_atan2) refers to atan2.o(i.__hardfp_atan2) for __hardfp_atan2
    atan2.o(i.atan2) refers (Special) to iusefp.o(.text) for __I$use$fp
    atan2.o(i.atan2) refers to atan2.o(i.__hardfp_atan2) for __hardfp_atan2
    atan2_x.o(i.____hardfp_atan2$lsc) refers (Special) to iusefp.o(.text) for __I$use$fp
    atan2_x.o(i.____hardfp_atan2$lsc) refers to dunder.o(i.__mathlib_dbl_infnan2) for __mathlib_dbl_infnan2
    atan2_x.o(i.____hardfp_atan2$lsc) refers to atan.o(i.atan) for atan
    atan2_x.o(i.____hardfp_atan2$lsc) refers to errno.o(i.__set_errno) for __set_errno
    atan2_x.o(i.____hardfp_atan2$lsc) refers to ddiv.o(.text) for __aeabi_ddiv
    atan2_x.o(i.____hardfp_atan2$lsc) refers to fabs.o(i.fabs) for fabs
    atan2_x.o(i.____hardfp_atan2$lsc) refers to dadd.o(.text) for __aeabi_dsub
    atan2_x.o(i.____hardfp_atan2$lsc) refers to qnan.o(.constdata) for __mathlib_zero
    atan2_x.o(i.____softfp_atan2$lsc) refers (Special) to iusefp.o(.text) for __I$use$fp
    atan2_x.o(i.____softfp_atan2$lsc) refers to atan2_x.o(i.____hardfp_atan2$lsc) for ____hardfp_atan2$lsc
    atan2_x.o(i.__atan2$lsc) refers (Special) to iusefp.o(.text) for __I$use$fp
    atan2_x.o(i.__atan2$lsc) refers to atan2_x.o(i.____hardfp_atan2$lsc) for ____hardfp_atan2$lsc
    cos.o(i.__hardfp_cos) refers (Special) to iusefp.o(.text) for __I$use$fp
    cos.o(i.__hardfp_cos) refers to errno.o(i.__set_errno) for __set_errno
    cos.o(i.__hardfp_cos) refers to dunder.o(i.__mathlib_dbl_invalid) for __mathlib_dbl_invalid
    cos.o(i.__hardfp_cos) refers to dunder.o(i.__mathlib_dbl_infnan) for __mathlib_dbl_infnan
    cos.o(i.__hardfp_cos) refers to rred.o(i.__ieee754_rem_pio2) for __ieee754_rem_pio2
    cos.o(i.__hardfp_cos) refers to sin_i.o(i.__kernel_sin) for __kernel_sin
    cos.o(i.__hardfp_cos) refers to cos_i.o(i.__kernel_cos) for __kernel_cos
    cos.o(i.__softfp_cos) refers (Special) to iusefp.o(.text) for __I$use$fp
    cos.o(i.__softfp_cos) refers to cos.o(i.__hardfp_cos) for __hardfp_cos
    cos.o(i.cos) refers (Special) to iusefp.o(.text) for __I$use$fp
    cos.o(i.cos) refers to cos.o(i.__hardfp_cos) for __hardfp_cos
    cos_x.o(i.____hardfp_cos$lsc) refers (Special) to iusefp.o(.text) for __I$use$fp
    cos_x.o(i.____hardfp_cos$lsc) refers to errno.o(i.__set_errno) for __set_errno
    cos_x.o(i.____hardfp_cos$lsc) refers to dunder.o(i.__mathlib_dbl_infnan) for __mathlib_dbl_infnan
    cos_x.o(i.____hardfp_cos$lsc) refers to rred.o(i.__ieee754_rem_pio2) for __ieee754_rem_pio2
    cos_x.o(i.____hardfp_cos$lsc) refers to sin_i.o(i.__kernel_sin) for __kernel_sin
    cos_x.o(i.____hardfp_cos$lsc) refers to cos_i.o(i.__kernel_cos) for __kernel_cos
    cos_x.o(i.____softfp_cos$lsc) refers (Special) to iusefp.o(.text) for __I$use$fp
    cos_x.o(i.____softfp_cos$lsc) refers to cos_x.o(i.____hardfp_cos$lsc) for ____hardfp_cos$lsc
    cos_x.o(i.__cos$lsc) refers (Special) to iusefp.o(.text) for __I$use$fp
    cos_x.o(i.__cos$lsc) refers to cos_x.o(i.____hardfp_cos$lsc) for ____hardfp_cos$lsc
    fabs.o(i.__hardfp_fabs) refers (Special) to iusefp.o(.text) for __I$use$fp
    fabs.o(i.__softfp_fabs) refers (Special) to iusefp.o(.text) for __I$use$fp
    fabs.o(i.fabs) refers (Special) to iusefp.o(.text) for __I$use$fp
    sin.o(i.__hardfp_sin) refers (Special) to iusefp.o(.text) for __I$use$fp
    sin.o(i.__hardfp_sin) refers to errno.o(i.__set_errno) for __set_errno
    sin.o(i.__hardfp_sin) refers to dunder.o(i.__mathlib_dbl_invalid) for __mathlib_dbl_invalid
    sin.o(i.__hardfp_sin) refers to dunder.o(i.__mathlib_dbl_infnan) for __mathlib_dbl_infnan
    sin.o(i.__hardfp_sin) refers to rred.o(i.__ieee754_rem_pio2) for __ieee754_rem_pio2
    sin.o(i.__hardfp_sin) refers to cos_i.o(i.__kernel_cos) for __kernel_cos
    sin.o(i.__hardfp_sin) refers to sin_i.o(i.__kernel_sin) for __kernel_sin
    sin.o(i.__softfp_sin) refers (Special) to iusefp.o(.text) for __I$use$fp
    sin.o(i.__softfp_sin) refers to sin.o(i.__hardfp_sin) for __hardfp_sin
    sin.o(i.sin) refers (Special) to iusefp.o(.text) for __I$use$fp
    sin.o(i.sin) refers to sin.o(i.__hardfp_sin) for __hardfp_sin
    sin_x.o(i.____hardfp_sin$lsc) refers (Special) to iusefp.o(.text) for __I$use$fp
    sin_x.o(i.____hardfp_sin$lsc) refers to errno.o(i.__set_errno) for __set_errno
    sin_x.o(i.____hardfp_sin$lsc) refers to dunder.o(i.__mathlib_dbl_infnan) for __mathlib_dbl_infnan
    sin_x.o(i.____hardfp_sin$lsc) refers to rred.o(i.__ieee754_rem_pio2) for __ieee754_rem_pio2
    sin_x.o(i.____hardfp_sin$lsc) refers to cos_i.o(i.__kernel_cos) for __kernel_cos
    sin_x.o(i.____hardfp_sin$lsc) refers to sin_i.o(i.__kernel_sin) for __kernel_sin
    sin_x.o(i.____softfp_sin$lsc) refers (Special) to iusefp.o(.text) for __I$use$fp
    sin_x.o(i.____softfp_sin$lsc) refers to sin_x.o(i.____hardfp_sin$lsc) for ____hardfp_sin$lsc
    sin_x.o(i.__sin$lsc) refers (Special) to iusefp.o(.text) for __I$use$fp
    sin_x.o(i.__sin$lsc) refers to sin_x.o(i.____hardfp_sin$lsc) for ____hardfp_sin$lsc
    sqrt.o(i.__hardfp_sqrt) refers (Special) to iusefp.o(.text) for __I$use$fp
    sqrt.o(i.__hardfp_sqrt) refers to dsqrt.o(.text) for _dsqrt
    sqrt.o(i.__hardfp_sqrt) refers to errno.o(i.__set_errno) for __set_errno
    sqrt.o(i.__softfp_sqrt) refers (Special) to iusefp.o(.text) for __I$use$fp
    sqrt.o(i.__softfp_sqrt) refers to dsqrt.o(.text) for _dsqrt
    sqrt.o(i.__softfp_sqrt) refers to errno.o(i.__set_errno) for __set_errno
    sqrt.o(i.sqrt) refers (Special) to iusefp.o(.text) for __I$use$fp
    sqrt.o(i.sqrt) refers to dsqrt.o(.text) for _dsqrt
    sqrt.o(i.sqrt) refers to errno.o(i.__set_errno) for __set_errno
    sqrt_x.o(i.____hardfp_sqrt$lsc) refers (Special) to iusefp.o(.text) for __I$use$fp
    sqrt_x.o(i.____hardfp_sqrt$lsc) refers to cdcmple.o(.text) for __aeabi_cdcmple
    sqrt_x.o(i.____hardfp_sqrt$lsc) refers to errno.o(i.__set_errno) for __set_errno
    sqrt_x.o(i.____hardfp_sqrt$lsc) refers to dsqrt.o(.text) for _dsqrt
    sqrt_x.o(i.____softfp_sqrt$lsc) refers (Special) to iusefp.o(.text) for __I$use$fp
    sqrt_x.o(i.____softfp_sqrt$lsc) refers to cdcmple.o(.text) for __aeabi_cdcmple
    sqrt_x.o(i.____softfp_sqrt$lsc) refers to errno.o(i.__set_errno) for __set_errno
    sqrt_x.o(i.____softfp_sqrt$lsc) refers to dsqrt.o(.text) for _dsqrt
    sqrt_x.o(i.__sqrt$lsc) refers (Special) to iusefp.o(.text) for __I$use$fp
    sqrt_x.o(i.__sqrt$lsc) refers to cdcmple.o(.text) for __aeabi_cdcmple
    sqrt_x.o(i.__sqrt$lsc) refers to errno.o(i.__set_errno) for __set_errno
    sqrt_x.o(i.__sqrt$lsc) refers to dsqrt.o(.text) for _dsqrt
    entry.o(.ARM.Collect$$$$00000000) refers (Special) to entry10a.o(.ARM.Collect$$$$0000000D) for __rt_final_cpp
    entry.o(.ARM.Collect$$$$00000000) refers (Special) to entry11a.o(.ARM.Collect$$$$0000000F) for __rt_final_exit
    entry.o(.ARM.Collect$$$$00000000) refers (Special) to entry7b.o(.ARM.Collect$$$$00000008) for _main_clock
    entry.o(.ARM.Collect$$$$00000000) refers (Special) to entry8b.o(.ARM.Collect$$$$0000000A) for _main_cpp_init
    entry.o(.ARM.Collect$$$$00000000) refers (Special) to entry9a.o(.ARM.Collect$$$$0000000B) for _main_init
    entry.o(.ARM.Collect$$$$00000000) refers (Special) to entry5.o(.ARM.Collect$$$$00000004) for _main_scatterload
    entry.o(.ARM.Collect$$$$00000000) refers (Special) to entry2.o(.ARM.Collect$$$$00000001) for _main_stk
    printfb.o(i.__0fprintf$bare) refers to printfb.o(i._printf_core) for _printf_core
    printfb.o(i.__0fprintf$bare) refers to usart6.o(i.fputc) for fputc
    printfb.o(i.__0printf$bare) refers to printfb.o(i._printf_core) for _printf_core
    printfb.o(i.__0printf$bare) refers to usart6.o(i.fputc) for fputc
    printfb.o(i.__0printf$bare) refers to usart6.o(.data) for __stdout
    printfb.o(i.__0snprintf$bare) refers to printfb.o(i._printf_core) for _printf_core
    printfb.o(i.__0snprintf$bare) refers to printfb.o(i._snputc) for _snputc
    printfb.o(i.__0sprintf$bare) refers to printfb.o(i._printf_core) for _printf_core
    printfb.o(i.__0sprintf$bare) refers to printfb.o(i._sputc) for _sputc
    printfb.o(i.__0vfprintf$bare) refers to printfb.o(i._printf_core) for _printf_core
    printfb.o(i.__0vfprintf$bare) refers to usart6.o(i.fputc) for fputc
    printfb.o(i.__0vprintf$bare) refers to printfb.o(i._printf_core) for _printf_core
    printfb.o(i.__0vprintf$bare) refers to usart6.o(i.fputc) for fputc
    printfb.o(i.__0vprintf$bare) refers to usart6.o(.data) for __stdout
    printfb.o(i.__0vsnprintf$bare) refers to printfb.o(i._printf_core) for _printf_core
    printfb.o(i.__0vsnprintf$bare) refers to printfb.o(i._snputc) for _snputc
    printfb.o(i.__0vsprintf$bare) refers to printfb.o(i._printf_core) for _printf_core
    printfb.o(i.__0vsprintf$bare) refers to printfb.o(i._sputc) for _sputc
    printf0.o(i.__0fprintf$0) refers to printf0.o(i._printf_core) for _printf_core
    printf0.o(i.__0fprintf$0) refers to usart6.o(i.fputc) for fputc
    printf0.o(i.__0printf$0) refers to printf0.o(i._printf_core) for _printf_core
    printf0.o(i.__0printf$0) refers to usart6.o(i.fputc) for fputc
    printf0.o(i.__0printf$0) refers to usart6.o(.data) for __stdout
    printf0.o(i.__0snprintf$0) refers to printf0.o(i._printf_core) for _printf_core
    printf0.o(i.__0snprintf$0) refers to printf0.o(i._snputc) for _snputc
    printf0.o(i.__0sprintf$0) refers to printf0.o(i._printf_core) for _printf_core
    printf0.o(i.__0sprintf$0) refers to printf0.o(i._sputc) for _sputc
    printf0.o(i.__0vfprintf$0) refers to printf0.o(i._printf_core) for _printf_core
    printf0.o(i.__0vfprintf$0) refers to usart6.o(i.fputc) for fputc
    printf0.o(i.__0vprintf$0) refers to printf0.o(i._printf_core) for _printf_core
    printf0.o(i.__0vprintf$0) refers to usart6.o(i.fputc) for fputc
    printf0.o(i.__0vprintf$0) refers to usart6.o(.data) for __stdout
    printf0.o(i.__0vsnprintf$0) refers to printf0.o(i._printf_core) for _printf_core
    printf0.o(i.__0vsnprintf$0) refers to printf0.o(i._snputc) for _snputc
    printf0.o(i.__0vsprintf$0) refers to printf0.o(i._printf_core) for _printf_core
    printf0.o(i.__0vsprintf$0) refers to printf0.o(i._sputc) for _sputc
    printf1.o(i.__0fprintf$1) refers to printf1.o(i._printf_core) for _printf_core
    printf1.o(i.__0fprintf$1) refers to usart6.o(i.fputc) for fputc
    printf1.o(i.__0printf$1) refers to printf1.o(i._printf_core) for _printf_core
    printf1.o(i.__0printf$1) refers to usart6.o(i.fputc) for fputc
    printf1.o(i.__0printf$1) refers to usart6.o(.data) for __stdout
    printf1.o(i.__0snprintf$1) refers to printf1.o(i._printf_core) for _printf_core
    printf1.o(i.__0snprintf$1) refers to printf1.o(i._snputc) for _snputc
    printf1.o(i.__0sprintf$1) refers to printf1.o(i._printf_core) for _printf_core
    printf1.o(i.__0sprintf$1) refers to printf1.o(i._sputc) for _sputc
    printf1.o(i.__0vfprintf$1) refers to printf1.o(i._printf_core) for _printf_core
    printf1.o(i.__0vfprintf$1) refers to usart6.o(i.fputc) for fputc
    printf1.o(i.__0vprintf$1) refers to printf1.o(i._printf_core) for _printf_core
    printf1.o(i.__0vprintf$1) refers to usart6.o(i.fputc) for fputc
    printf1.o(i.__0vprintf$1) refers to usart6.o(.data) for __stdout
    printf1.o(i.__0vsnprintf$1) refers to printf1.o(i._printf_core) for _printf_core
    printf1.o(i.__0vsnprintf$1) refers to printf1.o(i._snputc) for _snputc
    printf1.o(i.__0vsprintf$1) refers to printf1.o(i._printf_core) for _printf_core
    printf1.o(i.__0vsprintf$1) refers to printf1.o(i._sputc) for _sputc
    printf1.o(i._printf_core) refers to uidiv.o(.text) for __aeabi_uidivmod
    printf2.o(i.__0fprintf$2) refers to printf2.o(i._printf_core) for _printf_core
    printf2.o(i.__0fprintf$2) refers to usart6.o(i.fputc) for fputc
    printf2.o(i.__0printf$2) refers to printf2.o(i._printf_core) for _printf_core
    printf2.o(i.__0printf$2) refers to usart6.o(i.fputc) for fputc
    printf2.o(i.__0printf$2) refers to usart6.o(.data) for __stdout
    printf2.o(i.__0snprintf$2) refers to printf2.o(i._printf_core) for _printf_core
    printf2.o(i.__0snprintf$2) refers to printf2.o(i._snputc) for _snputc
    printf2.o(i.__0sprintf$2) refers to printf2.o(i._printf_core) for _printf_core
    printf2.o(i.__0sprintf$2) refers to printf2.o(i._sputc) for _sputc
    printf2.o(i.__0vfprintf$2) refers to printf2.o(i._printf_core) for _printf_core
    printf2.o(i.__0vfprintf$2) refers to usart6.o(i.fputc) for fputc
    printf2.o(i.__0vprintf$2) refers to printf2.o(i._printf_core) for _printf_core
    printf2.o(i.__0vprintf$2) refers to usart6.o(i.fputc) for fputc
    printf2.o(i.__0vprintf$2) refers to usart6.o(.data) for __stdout
    printf2.o(i.__0vsnprintf$2) refers to printf2.o(i._printf_core) for _printf_core
    printf2.o(i.__0vsnprintf$2) refers to printf2.o(i._snputc) for _snputc
    printf2.o(i.__0vsprintf$2) refers to printf2.o(i._printf_core) for _printf_core
    printf2.o(i.__0vsprintf$2) refers to printf2.o(i._sputc) for _sputc
    printf3.o(i.__0fprintf$3) refers to printf3.o(i._printf_core) for _printf_core
    printf3.o(i.__0fprintf$3) refers to usart6.o(i.fputc) for fputc
    printf3.o(i.__0printf$3) refers to printf3.o(i._printf_core) for _printf_core
    printf3.o(i.__0printf$3) refers to usart6.o(i.fputc) for fputc
    printf3.o(i.__0printf$3) refers to usart6.o(.data) for __stdout
    printf3.o(i.__0snprintf$3) refers to printf3.o(i._printf_core) for _printf_core
    printf3.o(i.__0snprintf$3) refers to printf3.o(i._snputc) for _snputc
    printf3.o(i.__0sprintf$3) refers to printf3.o(i._printf_core) for _printf_core
    printf3.o(i.__0sprintf$3) refers to printf3.o(i._sputc) for _sputc
    printf3.o(i.__0vfprintf$3) refers to printf3.o(i._printf_core) for _printf_core
    printf3.o(i.__0vfprintf$3) refers to usart6.o(i.fputc) for fputc
    printf3.o(i.__0vprintf$3) refers to printf3.o(i._printf_core) for _printf_core
    printf3.o(i.__0vprintf$3) refers to usart6.o(i.fputc) for fputc
    printf3.o(i.__0vprintf$3) refers to usart6.o(.data) for __stdout
    printf3.o(i.__0vsnprintf$3) refers to printf3.o(i._printf_core) for _printf_core
    printf3.o(i.__0vsnprintf$3) refers to printf3.o(i._snputc) for _snputc
    printf3.o(i.__0vsprintf$3) refers to printf3.o(i._printf_core) for _printf_core
    printf3.o(i.__0vsprintf$3) refers to printf3.o(i._sputc) for _sputc
    printf3.o(i._printf_core) refers to uidiv.o(.text) for __aeabi_uidivmod
    printf4.o(i.__0fprintf$4) refers to printf4.o(i._printf_core) for _printf_core
    printf4.o(i.__0fprintf$4) refers to usart6.o(i.fputc) for fputc
    printf4.o(i.__0printf$4) refers to printf4.o(i._printf_core) for _printf_core
    printf4.o(i.__0printf$4) refers to usart6.o(i.fputc) for fputc
    printf4.o(i.__0printf$4) refers to usart6.o(.data) for __stdout
    printf4.o(i.__0snprintf$4) refers to printf4.o(i._printf_core) for _printf_core
    printf4.o(i.__0snprintf$4) refers to printf4.o(i._snputc) for _snputc
    printf4.o(i.__0sprintf$4) refers to printf4.o(i._printf_core) for _printf_core
    printf4.o(i.__0sprintf$4) refers to printf4.o(i._sputc) for _sputc
    printf4.o(i.__0vfprintf$4) refers to printf4.o(i._printf_core) for _printf_core
    printf4.o(i.__0vfprintf$4) refers to usart6.o(i.fputc) for fputc
    printf4.o(i.__0vprintf$4) refers to printf4.o(i._printf_core) for _printf_core
    printf4.o(i.__0vprintf$4) refers to usart6.o(i.fputc) for fputc
    printf4.o(i.__0vprintf$4) refers to usart6.o(.data) for __stdout
    printf4.o(i.__0vsnprintf$4) refers to printf4.o(i._printf_core) for _printf_core
    printf4.o(i.__0vsnprintf$4) refers to printf4.o(i._snputc) for _snputc
    printf4.o(i.__0vsprintf$4) refers to printf4.o(i._printf_core) for _printf_core
    printf4.o(i.__0vsprintf$4) refers to printf4.o(i._sputc) for _sputc
    printf4.o(i._printf_core) refers to uldiv.o(.text) for __aeabi_uldivmod
    printf5.o(i.__0fprintf$5) refers to printf5.o(i._printf_core) for _printf_core
    printf5.o(i.__0fprintf$5) refers to usart6.o(i.fputc) for fputc
    printf5.o(i.__0printf$5) refers to printf5.o(i._printf_core) for _printf_core
    printf5.o(i.__0printf$5) refers to usart6.o(i.fputc) for fputc
    printf5.o(i.__0printf$5) refers to usart6.o(.data) for __stdout
    printf5.o(i.__0snprintf$5) refers to printf5.o(i._printf_core) for _printf_core
    printf5.o(i.__0snprintf$5) refers to printf5.o(i._snputc) for _snputc
    printf5.o(i.__0sprintf$5) refers to printf5.o(i._printf_core) for _printf_core
    printf5.o(i.__0sprintf$5) refers to printf5.o(i._sputc) for _sputc
    printf5.o(i.__0vfprintf$5) refers to printf5.o(i._printf_core) for _printf_core
    printf5.o(i.__0vfprintf$5) refers to usart6.o(i.fputc) for fputc
    printf5.o(i.__0vprintf$5) refers to printf5.o(i._printf_core) for _printf_core
    printf5.o(i.__0vprintf$5) refers to usart6.o(i.fputc) for fputc
    printf5.o(i.__0vprintf$5) refers to usart6.o(.data) for __stdout
    printf5.o(i.__0vsnprintf$5) refers to printf5.o(i._printf_core) for _printf_core
    printf5.o(i.__0vsnprintf$5) refers to printf5.o(i._snputc) for _snputc
    printf5.o(i.__0vsprintf$5) refers to printf5.o(i._printf_core) for _printf_core
    printf5.o(i.__0vsprintf$5) refers to printf5.o(i._sputc) for _sputc
    printf5.o(i._printf_core) refers to uldiv.o(.text) for __aeabi_uldivmod
    printf6.o(i.__0fprintf$6) refers to printf6.o(i._printf_core) for _printf_core
    printf6.o(i.__0fprintf$6) refers to usart6.o(i.fputc) for fputc
    printf6.o(i.__0printf$6) refers to printf6.o(i._printf_core) for _printf_core
    printf6.o(i.__0printf$6) refers to usart6.o(i.fputc) for fputc
    printf6.o(i.__0printf$6) refers to usart6.o(.data) for __stdout
    printf6.o(i.__0snprintf$6) refers to printf6.o(i._printf_core) for _printf_core
    printf6.o(i.__0snprintf$6) refers to printf6.o(i._snputc) for _snputc
    printf6.o(i.__0sprintf$6) refers to printf6.o(i._printf_core) for _printf_core
    printf6.o(i.__0sprintf$6) refers to printf6.o(i._sputc) for _sputc
    printf6.o(i.__0vfprintf$6) refers to printf6.o(i._printf_core) for _printf_core
    printf6.o(i.__0vfprintf$6) refers to usart6.o(i.fputc) for fputc
    printf6.o(i.__0vprintf$6) refers to printf6.o(i._printf_core) for _printf_core
    printf6.o(i.__0vprintf$6) refers to usart6.o(i.fputc) for fputc
    printf6.o(i.__0vprintf$6) refers to usart6.o(.data) for __stdout
    printf6.o(i.__0vsnprintf$6) refers to printf6.o(i._printf_core) for _printf_core
    printf6.o(i.__0vsnprintf$6) refers to printf6.o(i._snputc) for _snputc
    printf6.o(i.__0vsprintf$6) refers to printf6.o(i._printf_core) for _printf_core
    printf6.o(i.__0vsprintf$6) refers to printf6.o(i._sputc) for _sputc
    printf6.o(i._printf_core) refers to printf6.o(i._printf_pre_padding) for _printf_pre_padding
    printf6.o(i._printf_core) refers to uidiv.o(.text) for __aeabi_uidivmod
    printf6.o(i._printf_core) refers to printf6.o(i._printf_post_padding) for _printf_post_padding
    printf7.o(i.__0fprintf$7) refers to printf7.o(i._printf_core) for _printf_core
    printf7.o(i.__0fprintf$7) refers to usart6.o(i.fputc) for fputc
    printf7.o(i.__0printf$7) refers to printf7.o(i._printf_core) for _printf_core
    printf7.o(i.__0printf$7) refers to usart6.o(i.fputc) for fputc
    printf7.o(i.__0printf$7) refers to usart6.o(.data) for __stdout
    printf7.o(i.__0snprintf$7) refers to printf7.o(i._printf_core) for _printf_core
    printf7.o(i.__0snprintf$7) refers to printf7.o(i._snputc) for _snputc
    printf7.o(i.__0sprintf$7) refers to printf7.o(i._printf_core) for _printf_core
    printf7.o(i.__0sprintf$7) refers to printf7.o(i._sputc) for _sputc
    printf7.o(i.__0vfprintf$7) refers to printf7.o(i._printf_core) for _printf_core
    printf7.o(i.__0vfprintf$7) refers to usart6.o(i.fputc) for fputc
    printf7.o(i.__0vprintf$7) refers to printf7.o(i._printf_core) for _printf_core
    printf7.o(i.__0vprintf$7) refers to usart6.o(i.fputc) for fputc
    printf7.o(i.__0vprintf$7) refers to usart6.o(.data) for __stdout
    printf7.o(i.__0vsnprintf$7) refers to printf7.o(i._printf_core) for _printf_core
    printf7.o(i.__0vsnprintf$7) refers to printf7.o(i._snputc) for _snputc
    printf7.o(i.__0vsprintf$7) refers to printf7.o(i._printf_core) for _printf_core
    printf7.o(i.__0vsprintf$7) refers to printf7.o(i._sputc) for _sputc
    printf7.o(i._printf_core) refers to printf7.o(i._printf_pre_padding) for _printf_pre_padding
    printf7.o(i._printf_core) refers to uldiv.o(.text) for __aeabi_uldivmod
    printf7.o(i._printf_core) refers to printf7.o(i._printf_post_padding) for _printf_post_padding
    printf8.o(i.__0fprintf$8) refers to printf8.o(i._printf_core) for _printf_core
    printf8.o(i.__0fprintf$8) refers to usart6.o(i.fputc) for fputc
    printf8.o(i.__0printf$8) refers to printf8.o(i._printf_core) for _printf_core
    printf8.o(i.__0printf$8) refers to usart6.o(i.fputc) for fputc
    printf8.o(i.__0printf$8) refers to usart6.o(.data) for __stdout
    printf8.o(i.__0snprintf$8) refers to printf8.o(i._printf_core) for _printf_core
    printf8.o(i.__0snprintf$8) refers to printf8.o(i._snputc) for _snputc
    printf8.o(i.__0sprintf$8) refers to printf8.o(i._printf_core) for _printf_core
    printf8.o(i.__0sprintf$8) refers to printf8.o(i._sputc) for _sputc
    printf8.o(i.__0vfprintf$8) refers to printf8.o(i._printf_core) for _printf_core
    printf8.o(i.__0vfprintf$8) refers to usart6.o(i.fputc) for fputc
    printf8.o(i.__0vprintf$8) refers to printf8.o(i._printf_core) for _printf_core
    printf8.o(i.__0vprintf$8) refers to usart6.o(i.fputc) for fputc
    printf8.o(i.__0vprintf$8) refers to usart6.o(.data) for __stdout
    printf8.o(i.__0vsnprintf$8) refers to printf8.o(i._printf_core) for _printf_core
    printf8.o(i.__0vsnprintf$8) refers to printf8.o(i._snputc) for _snputc
    printf8.o(i.__0vsprintf$8) refers to printf8.o(i._printf_core) for _printf_core
    printf8.o(i.__0vsprintf$8) refers to printf8.o(i._sputc) for _sputc
    printf8.o(i._printf_core) refers to printf8.o(i._printf_pre_padding) for _printf_pre_padding
    printf8.o(i._printf_core) refers to uldiv.o(.text) for __aeabi_uldivmod
    printf8.o(i._printf_core) refers to printf8.o(i._printf_post_padding) for _printf_post_padding
    printfa.o(i.__0fprintf) refers (Special) to iusefp.o(.text) for __I$use$fp
    printfa.o(i.__0fprintf) refers to printfa.o(i._printf_core) for _printf_core
    printfa.o(i.__0fprintf) refers to usart6.o(i.fputc) for fputc
    printfa.o(i.__0printf) refers (Special) to iusefp.o(.text) for __I$use$fp
    printfa.o(i.__0printf) refers to printfa.o(i._printf_core) for _printf_core
    printfa.o(i.__0printf) refers to usart6.o(i.fputc) for fputc
    printfa.o(i.__0printf) refers to usart6.o(.data) for __stdout
    printfa.o(i.__0snprintf) refers (Special) to iusefp.o(.text) for __I$use$fp
    printfa.o(i.__0snprintf) refers to printfa.o(i._printf_core) for _printf_core
    printfa.o(i.__0snprintf) refers to printfa.o(i._snputc) for _snputc
    printfa.o(i.__0sprintf) refers (Special) to iusefp.o(.text) for __I$use$fp
    printfa.o(i.__0sprintf) refers to printfa.o(i._printf_core) for _printf_core
    printfa.o(i.__0sprintf) refers to printfa.o(i._sputc) for _sputc
    printfa.o(i.__0vfprintf) refers (Special) to iusefp.o(.text) for __I$use$fp
    printfa.o(i.__0vfprintf) refers to printfa.o(i._printf_core) for _printf_core
    printfa.o(i.__0vfprintf) refers to usart6.o(i.fputc) for fputc
    printfa.o(i.__0vprintf) refers (Special) to iusefp.o(.text) for __I$use$fp
    printfa.o(i.__0vprintf) refers to printfa.o(i._printf_core) for _printf_core
    printfa.o(i.__0vprintf) refers to usart6.o(i.fputc) for fputc
    printfa.o(i.__0vprintf) refers to usart6.o(.data) for __stdout
    printfa.o(i.__0vsnprintf) refers (Special) to iusefp.o(.text) for __I$use$fp
    printfa.o(i.__0vsnprintf) refers to printfa.o(i._printf_core) for _printf_core
    printfa.o(i.__0vsnprintf) refers to printfa.o(i._snputc) for _snputc
    printfa.o(i.__0vsprintf) refers (Special) to iusefp.o(.text) for __I$use$fp
    printfa.o(i.__0vsprintf) refers to printfa.o(i._printf_core) for _printf_core
    printfa.o(i.__0vsprintf) refers to printfa.o(i._sputc) for _sputc
    printfa.o(i._fp_digits) refers (Special) to iusefp.o(.text) for __I$use$fp
    printfa.o(i._fp_digits) refers to dmul.o(.text) for __aeabi_dmul
    printfa.o(i._fp_digits) refers to ddiv.o(.text) for __aeabi_ddiv
    printfa.o(i._fp_digits) refers to cdrcmple.o(.text) for __aeabi_cdrcmple
    printfa.o(i._fp_digits) refers to dadd.o(.text) for __aeabi_dadd
    printfa.o(i._fp_digits) refers to dfixul.o(.text) for __aeabi_d2ulz
    printfa.o(i._fp_digits) refers to uldiv.o(.text) for __aeabi_uldivmod
    printfa.o(i._printf_core) refers (Special) to iusefp.o(.text) for __I$use$fp
    printfa.o(i._printf_core) refers to printfa.o(i._printf_pre_padding) for _printf_pre_padding
    printfa.o(i._printf_core) refers to uldiv.o(.text) for __aeabi_uldivmod
    printfa.o(i._printf_core) refers to printfa.o(i._printf_post_padding) for _printf_post_padding
    printfa.o(i._printf_core) refers to printfa.o(i._fp_digits) for _fp_digits
    printfa.o(i._printf_core) refers to uidiv.o(.text) for __aeabi_uidivmod
    printfa.o(i._printf_post_padding) refers (Special) to iusefp.o(.text) for __I$use$fp
    printfa.o(i._printf_pre_padding) refers (Special) to iusefp.o(.text) for __I$use$fp
    printfa.o(i._snputc) refers (Special) to iusefp.o(.text) for __I$use$fp
    printfa.o(i._sputc) refers (Special) to iusefp.o(.text) for __I$use$fp
    dadd.o(.text) refers (Special) to iusefp.o(.text) for __I$use$fp
    dadd.o(.text) refers to llshl.o(.text) for __aeabi_llsl
    dadd.o(.text) refers to llsshr.o(.text) for __aeabi_lasr
    dadd.o(.text) refers to depilogue.o(.text) for _double_epilogue
    dmul.o(.text) refers (Special) to iusefp.o(.text) for __I$use$fp
    dmul.o(.text) refers to depilogue.o(.text) for _double_epilogue
    ddiv.o(.text) refers (Special) to iusefp.o(.text) for __I$use$fp
    ddiv.o(.text) refers to depilogue.o(.text) for _double_round
    dflti.o(.text) refers (Special) to iusefp.o(.text) for __I$use$fp
    dflti.o(.text) refers to depilogue.o(.text) for _double_epilogue
    dfltui.o(.text) refers (Special) to iusefp.o(.text) for __I$use$fp
    dfltui.o(.text) refers to depilogue.o(.text) for _double_epilogue
    f2d.o(.text) refers (Special) to iusefp.o(.text) for __I$use$fp
    cdrcmple.o(.text) refers (Special) to iusefp.o(.text) for __I$use$fp
    d2f.o(.text) refers (Special) to iusefp.o(.text) for __I$use$fp
    d2f.o(.text) refers to fepilogue.o(.text) for _float_round
    atan.o(i.__hardfp_atan) refers (Special) to iusefp.o(.text) for __I$use$fp
    atan.o(i.__hardfp_atan) refers to dunder.o(i.__mathlib_dbl_infnan) for __mathlib_dbl_infnan
    atan.o(i.__hardfp_atan) refers to fpclassify.o(i.__ARM_fpclassify) for __ARM_fpclassify
    atan.o(i.__hardfp_atan) refers to dunder.o(i.__mathlib_dbl_underflow) for __mathlib_dbl_underflow
    atan.o(i.__hardfp_atan) refers to fabs.o(i.fabs) for fabs
    atan.o(i.__hardfp_atan) refers to dadd.o(.text) for __aeabi_dadd
    atan.o(i.__hardfp_atan) refers to dmul.o(.text) for __aeabi_dmul
    atan.o(i.__hardfp_atan) refers to ddiv.o(.text) for __aeabi_ddiv
    atan.o(i.__hardfp_atan) refers to poly.o(i.__kernel_poly) for __kernel_poly
    atan.o(i.__hardfp_atan) refers to atan.o(.constdata) for .constdata
    atan.o(i.__softfp_atan) refers (Special) to iusefp.o(.text) for __I$use$fp
    atan.o(i.__softfp_atan) refers to atan.o(i.__hardfp_atan) for __hardfp_atan
    atan.o(i.atan) refers (Special) to iusefp.o(.text) for __I$use$fp
    atan.o(i.atan) refers to atan.o(i.__hardfp_atan) for __hardfp_atan
    atan.o(.constdata) refers (Special) to iusefp.o(.text) for __I$use$fp
    atan_x.o(i.____hardfp_atan$lsc) refers (Special) to iusefp.o(.text) for __I$use$fp
    atan_x.o(i.____hardfp_atan$lsc) refers to dunder.o(i.__mathlib_dbl_infnan) for __mathlib_dbl_infnan
    atan_x.o(i.____hardfp_atan$lsc) refers to fabs.o(i.fabs) for fabs
    atan_x.o(i.____hardfp_atan$lsc) refers to dadd.o(.text) for __aeabi_dadd
    atan_x.o(i.____hardfp_atan$lsc) refers to dmul.o(.text) for __aeabi_dmul
    atan_x.o(i.____hardfp_atan$lsc) refers to ddiv.o(.text) for __aeabi_ddiv
    atan_x.o(i.____hardfp_atan$lsc) refers to poly.o(i.__kernel_poly) for __kernel_poly
    atan_x.o(i.____hardfp_atan$lsc) refers to atan_x.o(.constdata) for .constdata
    atan_x.o(i.____softfp_atan$lsc) refers (Special) to iusefp.o(.text) for __I$use$fp
    atan_x.o(i.____softfp_atan$lsc) refers to atan_x.o(i.____hardfp_atan$lsc) for ____hardfp_atan$lsc
    atan_x.o(i.__atan$lsc) refers (Special) to iusefp.o(.text) for __I$use$fp
    atan_x.o(i.__atan$lsc) refers to atan_x.o(i.____hardfp_atan$lsc) for ____hardfp_atan$lsc
    atan_x.o(.constdata) refers (Special) to iusefp.o(.text) for __I$use$fp
    cos_i.o(i.__kernel_cos) refers (Special) to iusefp.o(.text) for __I$use$fp
    cos_i.o(i.__kernel_cos) refers to dfixi.o(.text) for __aeabi_d2iz
    cos_i.o(i.__kernel_cos) refers to dmul.o(.text) for __aeabi_dmul
    cos_i.o(i.__kernel_cos) refers to poly.o(i.__kernel_poly) for __kernel_poly
    cos_i.o(i.__kernel_cos) refers to dadd.o(.text) for __aeabi_dsub
    cos_i.o(i.__kernel_cos) refers to cos_i.o(.constdata) for .constdata
    cos_i.o(.constdata) refers (Special) to iusefp.o(.text) for __I$use$fp
    dunder.o(i.__mathlib_dbl_divzero) refers to ddiv.o(.text) for __aeabi_ddiv
    dunder.o(i.__mathlib_dbl_infnan) refers to dadd.o(.text) for __aeabi_dadd
    dunder.o(i.__mathlib_dbl_infnan2) refers to dadd.o(.text) for __aeabi_dadd
    dunder.o(i.__mathlib_dbl_invalid) refers to ddiv.o(.text) for __aeabi_ddiv
    dunder.o(i.__mathlib_dbl_overflow) refers to dmul.o(.text) for __aeabi_dmul
    dunder.o(i.__mathlib_dbl_posinfnan) refers to dmul.o(.text) for __aeabi_dmul
    dunder.o(i.__mathlib_dbl_underflow) refers to dmul.o(.text) for __aeabi_dmul
    fpclassify.o(i.__ARM_fpclassify) refers (Special) to iusefp.o(.text) for __I$use$fp
    poly.o(i.__kernel_poly) refers (Special) to iusefp.o(.text) for __I$use$fp
    poly.o(i.__kernel_poly) refers to dmul.o(.text) for __aeabi_dmul
    poly.o(i.__kernel_poly) refers to dadd.o(.text) for __aeabi_dadd
    qnan.o(.constdata) refers (Special) to iusefp.o(.text) for __I$use$fp
    rred.o(i.__ieee754_rem_pio2) refers (Special) to iusefp.o(.text) for __I$use$fp
    rred.o(i.__ieee754_rem_pio2) refers to dadd.o(.text) for __aeabi_dsub
    rred.o(i.__ieee754_rem_pio2) refers to fabs.o(i.fabs) for fabs
    rred.o(i.__ieee754_rem_pio2) refers to dmul.o(.text) for __aeabi_dmul
    rred.o(i.__ieee754_rem_pio2) refers to dfixi.o(.text) for __aeabi_d2iz
    rred.o(i.__ieee754_rem_pio2) refers to dflti.o(.text) for __aeabi_i2d
    rred.o(i.__ieee754_rem_pio2) refers to dfltui.o(.text) for __aeabi_ui2d
    rred.o(i.__ieee754_rem_pio2) refers to rred.o(.constdata) for .constdata
    rred.o(i.__use_accurate_range_reduction) refers (Special) to iusefp.o(.text) for __I$use$fp
    rred.o(.constdata) refers (Special) to iusefp.o(.text) for __I$use$fp
    sin_i.o(i.__kernel_sin) refers (Special) to iusefp.o(.text) for __I$use$fp
    sin_i.o(i.__kernel_sin) refers to fpclassify.o(i.__ARM_fpclassify) for __ARM_fpclassify
    sin_i.o(i.__kernel_sin) refers to dunder.o(i.__mathlib_dbl_underflow) for __mathlib_dbl_underflow
    sin_i.o(i.__kernel_sin) refers to dmul.o(.text) for __aeabi_dmul
    sin_i.o(i.__kernel_sin) refers to poly.o(i.__kernel_poly) for __kernel_poly
    sin_i.o(i.__kernel_sin) refers to dadd.o(.text) for __aeabi_dsub
    sin_i.o(i.__kernel_sin) refers to sin_i.o(.constdata) for .constdata
    sin_i.o(.constdata) refers (Special) to iusefp.o(.text) for __I$use$fp
    sin_i_x.o(i.____kernel_sin$lsc) refers (Special) to iusefp.o(.text) for __I$use$fp
    sin_i_x.o(i.____kernel_sin$lsc) refers to dmul.o(.text) for __aeabi_dmul
    sin_i_x.o(i.____kernel_sin$lsc) refers to poly.o(i.__kernel_poly) for __kernel_poly
    sin_i_x.o(i.____kernel_sin$lsc) refers to dadd.o(.text) for __aeabi_dsub
    sin_i_x.o(i.____kernel_sin$lsc) refers to sin_i_x.o(.constdata) for .constdata
    sin_i_x.o(.constdata) refers (Special) to iusefp.o(.text) for __I$use$fp
    entry2.o(.ARM.Collect$$$$00000001) refers to entry2.o(.ARM.Collect$$$$00002712) for __lit__00000000
    entry2.o(.ARM.Collect$$$$00002712) refers to startup_stm32f4xx.o(STACK) for __initial_sp
    entry2.o(__vectab_stack_and_reset_area) refers to startup_stm32f4xx.o(STACK) for __initial_sp
    entry2.o(__vectab_stack_and_reset_area) refers to entry.o(.ARM.Collect$$$$00000000) for __main
    entry5.o(.ARM.Collect$$$$00000004) refers to init.o(.text) for __scatterload
    entry9a.o(.ARM.Collect$$$$0000000B) refers to main.o(i.main) for main
    entry9b.o(.ARM.Collect$$$$0000000C) refers to main.o(i.main) for main
    uldiv.o(.text) refers to llushr.o(.text) for __aeabi_llsr
    uldiv.o(.text) refers to llshl.o(.text) for __aeabi_llsl
    errno.o(i.__aeabi_errno_addr) refers to errno.o(.data) for .data
    errno.o(i.__read_errno) refers to errno.o(.data) for .data
    errno.o(i.__set_errno) refers to errno.o(.data) for .data
    depilogue.o(.text) refers to llshl.o(.text) for __aeabi_llsl
    depilogue.o(.text) refers to llushr.o(.text) for __aeabi_llsr
    dsqrt.o(.text) refers to llushr.o(.text) for __aeabi_llsr
    dsqrt.o(.text) refers to depilogue.o(.text) for _double_round
    dfixul.o(.text) refers to llushr.o(.text) for __aeabi_llsr
    dfixul.o(.text) refers to llshl.o(.text) for __aeabi_llsl
    init.o(.text) refers to entry5.o(.ARM.Collect$$$$00000004) for __main_after_scatterload
    dfixi.o(.text) refers to llushr.o(.text) for __aeabi_llsr


==============================================================================

Removing Unused input sections from the image.

    Removing remotecontrol.o(.rev16_text), (4 bytes).
    Removing remotecontrol.o(.revsh_text), (4 bytes).
    Removing remotecontrol.o(.rrx_text), (6 bytes).
    Removing cmcontrol.o(.rev16_text), (4 bytes).
    Removing cmcontrol.o(.revsh_text), (4 bytes).
    Removing cmcontrol.o(.rrx_text), (6 bytes).
    Removing pid.o(.rev16_text), (4 bytes).
    Removing pid.o(.revsh_text), (4 bytes).
    Removing pid.o(.rrx_text), (6 bytes).
    Removing pid.o(i.PidValControl), (448 bytes).
    Removing pid.o(.data), (16 bytes).
    Removing gimbalcontrol.o(.rev16_text), (4 bytes).
    Removing gimbalcontrol.o(.revsh_text), (4 bytes).
    Removing gimbalcontrol.o(.rrx_text), (6 bytes).
    Removing auto_aim.o(.rev16_text), (4 bytes).
    Removing auto_aim.o(.revsh_text), (4 bytes).
    Removing auto_aim.o(.rrx_text), (6 bytes).
    Removing auto_aim.o(i.Auto_aim), (156 bytes).
    Removing auto_aim.o(.bss), (46 bytes).
    Removing auto_aim.o(.data), (20 bytes).
    Removing shootcontrol.o(.rev16_text), (4 bytes).
    Removing shootcontrol.o(.revsh_text), (4 bytes).
    Removing shootcontrol.o(.rrx_text), (6 bytes).
    Removing monitorcontrol.o(.rev16_text), (4 bytes).
    Removing monitorcontrol.o(.revsh_text), (4 bytes).
    Removing monitorcontrol.o(.rrx_text), (6 bytes).
    Removing monitorcontrol.o(i.AdcReceiveMonitor), (4 bytes).
    Removing catchcontrol.o(.rev16_text), (4 bytes).
    Removing catchcontrol.o(.revsh_text), (4 bytes).
    Removing catchcontrol.o(.rrx_text), (6 bytes).
    Removing main.o(.rev16_text), (4 bytes).
    Removing main.o(.revsh_text), (4 bytes).
    Removing main.o(.rrx_text), (6 bytes).
    Removing stm32f4xx_it.o(.rev16_text), (4 bytes).
    Removing stm32f4xx_it.o(.revsh_text), (4 bytes).
    Removing stm32f4xx_it.o(.rrx_text), (6 bytes).
    Removing controltask.o(.rev16_text), (4 bytes).
    Removing controltask.o(.revsh_text), (4 bytes).
    Removing controltask.o(.rrx_text), (6 bytes).
    Removing delay.o(.rev16_text), (4 bytes).
    Removing delay.o(.revsh_text), (4 bytes).
    Removing delay.o(.rrx_text), (6 bytes).
    Removing delay.o(i.delay_us), (76 bytes).
    Removing led.o(.rev16_text), (4 bytes).
    Removing led.o(.revsh_text), (4 bytes).
    Removing led.o(.rrx_text), (6 bytes).
    Removing sys.o(.rev16_text), (4 bytes).
    Removing sys.o(.revsh_text), (4 bytes).
    Removing sys.o(.rrx_text), (6 bytes).
    Removing sys.o(.emb_text), (16 bytes).
    Removing bsp.o(.rev16_text), (4 bytes).
    Removing bsp.o(.revsh_text), (4 bytes).
    Removing bsp.o(.rrx_text), (6 bytes).
    Removing timer.o(.rev16_text), (4 bytes).
    Removing timer.o(.revsh_text), (4 bytes).
    Removing timer.o(.rrx_text), (6 bytes).
    Removing spi.o(.rev16_text), (4 bytes).
    Removing spi.o(.revsh_text), (4 bytes).
    Removing spi.o(.rrx_text), (6 bytes).
    Removing mpu6500.o(.rev16_text), (4 bytes).
    Removing mpu6500.o(.revsh_text), (4 bytes).
    Removing mpu6500.o(.rrx_text), (6 bytes).
    Removing mpu6500.o(i.MPU6500ReadGYRO), (208 bytes).
    Removing mpu6500.o(i.MPU6500_ReadACCEL), (164 bytes).
    Removing usart6.o(.rev16_text), (4 bytes).
    Removing usart6.o(.revsh_text), (4 bytes).
    Removing usart6.o(.rrx_text), (6 bytes).
    Removing usart6.o(i.UART6_Send), (44 bytes).
    Removing usart6.o(i._sys_exit), (4 bytes).
    Removing usart6.o(i.fputc), (28 bytes).
    Removing rc.o(.rev16_text), (4 bytes).
    Removing rc.o(.revsh_text), (4 bytes).
    Removing rc.o(.rrx_text), (6 bytes).
    Removing rc.o(i.TestRc), (288 bytes).
    Removing can.o(.rev16_text), (4 bytes).
    Removing can.o(.revsh_text), (4 bytes).
    Removing can.o(.rrx_text), (6 bytes).
    Removing can.o(i.CAN1_Cmd_standard), (80 bytes).
    Removing mpu6050_driver.o(.rev16_text), (4 bytes).
    Removing mpu6050_driver.o(.revsh_text), (4 bytes).
    Removing mpu6050_driver.o(.rrx_text), (6 bytes).
    Removing mpu6050_driver.o(i.MPU6050_Initialization), (432 bytes).
    Removing mpu6050_driver.o(i.MPU6050_ReadData), (676 bytes).
    Removing mpu6050_driver.o(.bss), (100 bytes).
    Removing mpu6050_driver.o(.data), (16 bytes).
    Removing mpu6050_i2c.o(.rev16_text), (4 bytes).
    Removing mpu6050_i2c.o(.revsh_text), (4 bytes).
    Removing mpu6050_i2c.o(.rrx_text), (6 bytes).
    Removing mpu6050_i2c.o(i.HEAT_Configuration), (52 bytes).
    Removing mpu6050_i2c.o(i.IIC_Ack), (76 bytes).
    Removing mpu6050_i2c.o(i.IIC_Delay), (26 bytes).
    Removing mpu6050_i2c.o(i.IIC_GPIO_Init), (148 bytes).
    Removing mpu6050_i2c.o(i.IIC_ReadBit), (88 bytes).
    Removing mpu6050_i2c.o(i.IIC_ReadData), (208 bytes).
    Removing mpu6050_i2c.o(i.IIC_SDA_In), (40 bytes).
    Removing mpu6050_i2c.o(i.IIC_SDA_Out), (36 bytes).
    Removing mpu6050_i2c.o(i.IIC_Start), (124 bytes).
    Removing mpu6050_i2c.o(i.IIC_Stop), (56 bytes).
    Removing mpu6050_i2c.o(i.IIC_WaitAck), (124 bytes).
    Removing mpu6050_i2c.o(i.IIC_WriteBit), (96 bytes).
    Removing mpu6050_i2c.o(i.IIC_WriteData), (156 bytes).
    Removing euler.o(.rev16_text), (4 bytes).
    Removing euler.o(.revsh_text), (4 bytes).
    Removing euler.o(.rrx_text), (6 bytes).
    Removing frame.o(i.crc16Check), (56 bytes).
    Removing frame.o(i.crc8Check), (36 bytes).
    Removing frame.o(i.packFrame), (28 bytes).
    Removing frame.o(i.sumCheck), (30 bytes).
    Removing frame.o(i.unpackFrame), (78 bytes).
    Removing frame.o(.constdata), (772 bytes).
    Removing usart3.o(.rev16_text), (4 bytes).
    Removing usart3.o(.revsh_text), (4 bytes).
    Removing usart3.o(.rrx_text), (6 bytes).
    Removing usart3.o(i.UART3_Send), (44 bytes).
    Removing laser.o(.rev16_text), (4 bytes).
    Removing laser.o(.revsh_text), (4 bytes).
    Removing laser.o(.rrx_text), (6 bytes).
    Removing buzzer.o(.rev16_text), (4 bytes).
    Removing buzzer.o(.revsh_text), (4 bytes).
    Removing buzzer.o(.rrx_text), (6 bytes).
    Removing buzzer.o(i.Buzzer_toggle), (44 bytes).
    Removing adc.o(.rev16_text), (4 bytes).
    Removing adc.o(.revsh_text), (4 bytes).
    Removing adc.o(.rrx_text), (6 bytes).
    Removing adc.o(i.Get_Adc_Average), (46 bytes).
    Removing adc.o(.data), (1 bytes).
    Removing cylinder.o(.rev16_text), (4 bytes).
    Removing cylinder.o(.revsh_text), (4 bytes).
    Removing cylinder.o(.rrx_text), (6 bytes).
    Removing infrared.o(.rev16_text), (4 bytes).
    Removing infrared.o(.revsh_text), (4 bytes).
    Removing infrared.o(.rrx_text), (6 bytes).
    Removing catchbullet.o(.rev16_text), (4 bytes).
    Removing catchbullet.o(.revsh_text), (4 bytes).
    Removing catchbullet.o(.rrx_text), (6 bytes).
    Removing catchbullet.o(i.LiftSpeedcal), (212 bytes).
    Removing catchbullet.o(i.catchbullet), (328 bytes).
    Removing catchbullet.o(i.catchtest), (244 bytes).
    Removing pwm.o(.rev16_text), (4 bytes).
    Removing pwm.o(.revsh_text), (4 bytes).
    Removing pwm.o(.rrx_text), (6 bytes).
    Removing misc.o(.rev16_text), (4 bytes).
    Removing misc.o(.revsh_text), (4 bytes).
    Removing misc.o(.rrx_text), (6 bytes).
    Removing misc.o(i.NVIC_PriorityGroupConfig), (20 bytes).
    Removing misc.o(i.NVIC_SetVectorTable), (20 bytes).
    Removing misc.o(i.NVIC_SystemLPConfig), (32 bytes).
    Removing stm32f4xx_adc.o(.rev16_text), (4 bytes).
    Removing stm32f4xx_adc.o(.revsh_text), (4 bytes).
    Removing stm32f4xx_adc.o(.rrx_text), (6 bytes).
    Removing stm32f4xx_adc.o(i.ADC_AnalogWatchdogCmd), (20 bytes).
    Removing stm32f4xx_adc.o(i.ADC_AnalogWatchdogSingleChannelConfig), (16 bytes).
    Removing stm32f4xx_adc.o(i.ADC_AnalogWatchdogThresholdsConfig), (6 bytes).
    Removing stm32f4xx_adc.o(i.ADC_AutoInjectedConvCmd), (22 bytes).
    Removing stm32f4xx_adc.o(i.ADC_ClearFlag), (6 bytes).
    Removing stm32f4xx_adc.o(i.ADC_ClearITPendingBit), (10 bytes).
    Removing stm32f4xx_adc.o(i.ADC_CommonStructInit), (12 bytes).
    Removing stm32f4xx_adc.o(i.ADC_ContinuousModeCmd), (22 bytes).
    Removing stm32f4xx_adc.o(i.ADC_DMACmd), (22 bytes).
    Removing stm32f4xx_adc.o(i.ADC_DMARequestAfterLastTransferCmd), (22 bytes).
    Removing stm32f4xx_adc.o(i.ADC_DeInit), (22 bytes).
    Removing stm32f4xx_adc.o(i.ADC_DiscModeChannelCountConfig), (24 bytes).
    Removing stm32f4xx_adc.o(i.ADC_DiscModeCmd), (22 bytes).
    Removing stm32f4xx_adc.o(i.ADC_EOCOnEachRegularChannelCmd), (22 bytes).
    Removing stm32f4xx_adc.o(i.ADC_ExternalTrigInjectedConvConfig), (16 bytes).
    Removing stm32f4xx_adc.o(i.ADC_ExternalTrigInjectedConvEdgeConfig), (16 bytes).
    Removing stm32f4xx_adc.o(i.ADC_GetITStatus), (38 bytes).
    Removing stm32f4xx_adc.o(i.ADC_GetInjectedConversionValue), (28 bytes).
    Removing stm32f4xx_adc.o(i.ADC_GetMultiModeConversionValue), (12 bytes).
    Removing stm32f4xx_adc.o(i.ADC_GetSoftwareStartConvStatus), (20 bytes).
    Removing stm32f4xx_adc.o(i.ADC_GetSoftwareStartInjectedConvCmdStatus), (20 bytes).
    Removing stm32f4xx_adc.o(i.ADC_ITConfig), (32 bytes).
    Removing stm32f4xx_adc.o(i.ADC_InjectedChannelConfig), (130 bytes).
    Removing stm32f4xx_adc.o(i.ADC_InjectedDiscModeCmd), (22 bytes).
    Removing stm32f4xx_adc.o(i.ADC_InjectedSequencerLengthConfig), (24 bytes).
    Removing stm32f4xx_adc.o(i.ADC_MultiModeDMARequestAfterLastTransferCmd), (44 bytes).
    Removing stm32f4xx_adc.o(i.ADC_SetInjectedOffset), (20 bytes).
    Removing stm32f4xx_adc.o(i.ADC_SoftwareStartInjectedConv), (10 bytes).
    Removing stm32f4xx_adc.o(i.ADC_StructInit), (20 bytes).
    Removing stm32f4xx_adc.o(i.ADC_TempSensorVrefintCmd), (44 bytes).
    Removing stm32f4xx_adc.o(i.ADC_VBATCmd), (44 bytes).
    Removing stm32f4xx_can.o(.rev16_text), (4 bytes).
    Removing stm32f4xx_can.o(.revsh_text), (4 bytes).
    Removing stm32f4xx_can.o(.rrx_text), (6 bytes).
    Removing stm32f4xx_can.o(i.CAN_CancelTransmit), (48 bytes).
    Removing stm32f4xx_can.o(i.CAN_ClearFlag), (56 bytes).
    Removing stm32f4xx_can.o(i.CAN_DBGFreeze), (22 bytes).
    Removing stm32f4xx_can.o(i.CAN_DeInit), (56 bytes).
    Removing stm32f4xx_can.o(i.CAN_FIFORelease), (22 bytes).
    Removing stm32f4xx_can.o(i.CAN_GetFlagStatus), (120 bytes).
    Removing stm32f4xx_can.o(i.CAN_GetLSBTransmitErrorCounter), (12 bytes).
    Removing stm32f4xx_can.o(i.CAN_GetLastErrorCode), (12 bytes).
    Removing stm32f4xx_can.o(i.CAN_GetReceiveErrorCounter), (10 bytes).
    Removing stm32f4xx_can.o(i.CAN_MessagePending), (30 bytes).
    Removing stm32f4xx_can.o(i.CAN_OperatingModeRequest), (162 bytes).
    Removing stm32f4xx_can.o(i.CAN_SlaveStartBank), (52 bytes).
    Removing stm32f4xx_can.o(i.CAN_Sleep), (30 bytes).
    Removing stm32f4xx_can.o(i.CAN_StructInit), (32 bytes).
    Removing stm32f4xx_can.o(i.CAN_TTComModeCmd), (118 bytes).
    Removing stm32f4xx_can.o(i.CAN_TransmitStatus), (160 bytes).
    Removing stm32f4xx_can.o(i.CAN_WakeUp), (48 bytes).
    Removing stm32f4xx_crc.o(.rev16_text), (4 bytes).
    Removing stm32f4xx_crc.o(.revsh_text), (4 bytes).
    Removing stm32f4xx_crc.o(.rrx_text), (6 bytes).
    Removing stm32f4xx_crc.o(i.CRC_CalcBlockCRC), (36 bytes).
    Removing stm32f4xx_crc.o(i.CRC_CalcCRC), (16 bytes).
    Removing stm32f4xx_crc.o(i.CRC_GetCRC), (12 bytes).
    Removing stm32f4xx_crc.o(i.CRC_GetIDRegister), (12 bytes).
    Removing stm32f4xx_crc.o(i.CRC_ResetDR), (12 bytes).
    Removing stm32f4xx_crc.o(i.CRC_SetIDRegister), (12 bytes).
    Removing stm32f4xx_cryp.o(.rev16_text), (4 bytes).
    Removing stm32f4xx_cryp.o(.revsh_text), (4 bytes).
    Removing stm32f4xx_cryp.o(.rrx_text), (6 bytes).
    Removing stm32f4xx_cryp.o(i.CRYP_Cmd), (36 bytes).
    Removing stm32f4xx_cryp.o(i.CRYP_DMACmd), (36 bytes).
    Removing stm32f4xx_cryp.o(i.CRYP_DataIn), (12 bytes).
    Removing stm32f4xx_cryp.o(i.CRYP_DataOut), (12 bytes).
    Removing stm32f4xx_cryp.o(i.CRYP_DeInit), (20 bytes).
    Removing stm32f4xx_cryp.o(i.CRYP_FIFOFlush), (20 bytes).
    Removing stm32f4xx_cryp.o(i.CRYP_GetFlagStatus), (40 bytes).
    Removing stm32f4xx_cryp.o(i.CRYP_GetITStatus), (24 bytes).
    Removing stm32f4xx_cryp.o(i.CRYP_ITConfig), (36 bytes).
    Removing stm32f4xx_cryp.o(i.CRYP_IVInit), (24 bytes).
    Removing stm32f4xx_cryp.o(i.CRYP_IVStructInit), (12 bytes).
    Removing stm32f4xx_cryp.o(i.CRYP_Init), (124 bytes).
    Removing stm32f4xx_cryp.o(i.CRYP_KeyInit), (40 bytes).
    Removing stm32f4xx_cryp.o(i.CRYP_KeyStructInit), (20 bytes).
    Removing stm32f4xx_cryp.o(i.CRYP_RestoreContext), (72 bytes).
    Removing stm32f4xx_cryp.o(i.CRYP_SaveContext), (180 bytes).
    Removing stm32f4xx_cryp.o(i.CRYP_StructInit), (12 bytes).
    Removing stm32f4xx_cryp_aes.o(.rev16_text), (4 bytes).
    Removing stm32f4xx_cryp_aes.o(.revsh_text), (4 bytes).
    Removing stm32f4xx_cryp_aes.o(.rrx_text), (6 bytes).
    Removing stm32f4xx_cryp_aes.o(i.CRYP_AES_CBC), (550 bytes).
    Removing stm32f4xx_cryp_aes.o(i.CRYP_AES_CTR), (470 bytes).
    Removing stm32f4xx_cryp_aes.o(i.CRYP_AES_ECB), (504 bytes).
    Removing stm32f4xx_cryp_des.o(.rev16_text), (4 bytes).
    Removing stm32f4xx_cryp_des.o(.revsh_text), (4 bytes).
    Removing stm32f4xx_cryp_des.o(.rrx_text), (6 bytes).
    Removing stm32f4xx_cryp_des.o(i.CRYP_DES_CBC), (246 bytes).
    Removing stm32f4xx_cryp_des.o(i.CRYP_DES_ECB), (222 bytes).
    Removing stm32f4xx_cryp_tdes.o(.rev16_text), (4 bytes).
    Removing stm32f4xx_cryp_tdes.o(.revsh_text), (4 bytes).
    Removing stm32f4xx_cryp_tdes.o(.rrx_text), (6 bytes).
    Removing stm32f4xx_cryp_tdes.o(i.CRYP_TDES_CBC), (278 bytes).
    Removing stm32f4xx_cryp_tdes.o(i.CRYP_TDES_ECB), (254 bytes).
    Removing stm32f4xx_dac.o(.rev16_text), (4 bytes).
    Removing stm32f4xx_dac.o(.revsh_text), (4 bytes).
    Removing stm32f4xx_dac.o(.rrx_text), (6 bytes).
    Removing stm32f4xx_dac.o(i.DAC_ClearFlag), (16 bytes).
    Removing stm32f4xx_dac.o(i.DAC_ClearITPendingBit), (16 bytes).
    Removing stm32f4xx_dac.o(i.DAC_Cmd), (40 bytes).
    Removing stm32f4xx_dac.o(i.DAC_DMACmd), (44 bytes).
    Removing stm32f4xx_dac.o(i.DAC_DeInit), (22 bytes).
    Removing stm32f4xx_dac.o(i.DAC_DualSoftwareTriggerCmd), (36 bytes).
    Removing stm32f4xx_dac.o(i.DAC_GetDataOutputValue), (36 bytes).
    Removing stm32f4xx_dac.o(i.DAC_GetFlagStatus), (32 bytes).
    Removing stm32f4xx_dac.o(i.DAC_GetITStatus), (48 bytes).
    Removing stm32f4xx_dac.o(i.DAC_ITConfig), (40 bytes).
    Removing stm32f4xx_dac.o(i.DAC_Init), (52 bytes).
    Removing stm32f4xx_dac.o(i.DAC_SetChannel1Data), (32 bytes).
    Removing stm32f4xx_dac.o(i.DAC_SetChannel2Data), (32 bytes).
    Removing stm32f4xx_dac.o(i.DAC_SetDualChannelData), (36 bytes).
    Removing stm32f4xx_dac.o(i.DAC_SoftwareTriggerCmd), (44 bytes).
    Removing stm32f4xx_dac.o(i.DAC_StructInit), (12 bytes).
    Removing stm32f4xx_dac.o(i.DAC_WaveGenerationCmd), (40 bytes).
    Removing stm32f4xx_dbgmcu.o(.rev16_text), (4 bytes).
    Removing stm32f4xx_dbgmcu.o(.revsh_text), (4 bytes).
    Removing stm32f4xx_dbgmcu.o(.rrx_text), (6 bytes).
    Removing stm32f4xx_dbgmcu.o(i.DBGMCU_APB1PeriphConfig), (32 bytes).
    Removing stm32f4xx_dbgmcu.o(i.DBGMCU_APB2PeriphConfig), (32 bytes).
    Removing stm32f4xx_dbgmcu.o(i.DBGMCU_Config), (32 bytes).
    Removing stm32f4xx_dbgmcu.o(i.DBGMCU_GetDEVID), (16 bytes).
    Removing stm32f4xx_dbgmcu.o(i.DBGMCU_GetREVID), (12 bytes).
    Removing stm32f4xx_dcmi.o(.rev16_text), (4 bytes).
    Removing stm32f4xx_dcmi.o(.revsh_text), (4 bytes).
    Removing stm32f4xx_dcmi.o(.rrx_text), (6 bytes).
    Removing stm32f4xx_dcmi.o(i.DCMI_CROPCmd), (36 bytes).
    Removing stm32f4xx_dcmi.o(i.DCMI_CROPConfig), (32 bytes).
    Removing stm32f4xx_dcmi.o(i.DCMI_CaptureCmd), (36 bytes).
    Removing stm32f4xx_dcmi.o(i.DCMI_ClearFlag), (12 bytes).
    Removing stm32f4xx_dcmi.o(i.DCMI_ClearITPendingBit), (12 bytes).
    Removing stm32f4xx_dcmi.o(i.DCMI_Cmd), (36 bytes).
    Removing stm32f4xx_dcmi.o(i.DCMI_DeInit), (28 bytes).
    Removing stm32f4xx_dcmi.o(i.DCMI_GetFlagStatus), (52 bytes).
    Removing stm32f4xx_dcmi.o(i.DCMI_GetITStatus), (28 bytes).
    Removing stm32f4xx_dcmi.o(i.DCMI_ITConfig), (36 bytes).
    Removing stm32f4xx_dcmi.o(i.DCMI_Init), (64 bytes).
    Removing stm32f4xx_dcmi.o(i.DCMI_JPEGCmd), (36 bytes).
    Removing stm32f4xx_dcmi.o(i.DCMI_ReadData), (12 bytes).
    Removing stm32f4xx_dcmi.o(i.DCMI_SetEmbeddedSynchroCodes), (32 bytes).
    Removing stm32f4xx_dcmi.o(i.DCMI_StructInit), (18 bytes).
    Removing stm32f4xx_dma.o(.rev16_text), (4 bytes).
    Removing stm32f4xx_dma.o(.revsh_text), (4 bytes).
    Removing stm32f4xx_dma.o(.rrx_text), (6 bytes).
    Removing stm32f4xx_dma.o(i.DMA_DoubleBufferModeCmd), (22 bytes).
    Removing stm32f4xx_dma.o(i.DMA_DoubleBufferModeConfig), (24 bytes).
    Removing stm32f4xx_dma.o(i.DMA_FlowControllerConfig), (22 bytes).
    Removing stm32f4xx_dma.o(i.DMA_GetCmdStatus), (20 bytes).
    Removing stm32f4xx_dma.o(i.DMA_GetCurrDataCounter), (8 bytes).
    Removing stm32f4xx_dma.o(i.DMA_GetCurrentMemoryTarget), (20 bytes).
    Removing stm32f4xx_dma.o(i.DMA_GetFIFOStatus), (12 bytes).
    Removing stm32f4xx_dma.o(i.DMA_GetFlagStatus), (68 bytes).
    Removing stm32f4xx_dma.o(i.DMA_MemoryTargetConfig), (10 bytes).
    Removing stm32f4xx_dma.o(i.DMA_PeriphIncOffsetSizeConfig), (22 bytes).
    Removing stm32f4xx_dma.o(i.DMA_SetCurrDataCounter), (4 bytes).
    Removing stm32f4xx_dma.o(i.DMA_StructInit), (34 bytes).
    Removing stm32f4xx_exti.o(.rev16_text), (4 bytes).
    Removing stm32f4xx_exti.o(.revsh_text), (4 bytes).
    Removing stm32f4xx_exti.o(.rrx_text), (6 bytes).
    Removing stm32f4xx_exti.o(i.EXTI_ClearFlag), (12 bytes).
    Removing stm32f4xx_exti.o(i.EXTI_ClearITPendingBit), (12 bytes).
    Removing stm32f4xx_exti.o(i.EXTI_DeInit), (36 bytes).
    Removing stm32f4xx_exti.o(i.EXTI_GenerateSWInterrupt), (16 bytes).
    Removing stm32f4xx_exti.o(i.EXTI_GetFlagStatus), (24 bytes).
    Removing stm32f4xx_exti.o(i.EXTI_GetITStatus), (40 bytes).
    Removing stm32f4xx_exti.o(i.EXTI_Init), (148 bytes).
    Removing stm32f4xx_exti.o(i.EXTI_StructInit), (16 bytes).
    Removing stm32f4xx_flash.o(.rev16_text), (4 bytes).
    Removing stm32f4xx_flash.o(.revsh_text), (4 bytes).
    Removing stm32f4xx_flash.o(.rrx_text), (6 bytes).
    Removing stm32f4xx_flash.o(i.FLASH_ClearFlag), (12 bytes).
    Removing stm32f4xx_flash.o(i.FLASH_DataCacheCmd), (36 bytes).
    Removing stm32f4xx_flash.o(i.FLASH_DataCacheReset), (20 bytes).
    Removing stm32f4xx_flash.o(i.FLASH_EraseAllSectors), (108 bytes).
    Removing stm32f4xx_flash.o(i.FLASH_EraseSector), (136 bytes).
    Removing stm32f4xx_flash.o(i.FLASH_GetFlagStatus), (24 bytes).
    Removing stm32f4xx_flash.o(i.FLASH_GetStatus), (72 bytes).
    Removing stm32f4xx_flash.o(i.FLASH_ITConfig), (32 bytes).
    Removing stm32f4xx_flash.o(i.FLASH_InstructionCacheCmd), (36 bytes).
    Removing stm32f4xx_flash.o(i.FLASH_InstructionCacheReset), (20 bytes).
    Removing stm32f4xx_flash.o(i.FLASH_Lock), (20 bytes).
    Removing stm32f4xx_flash.o(i.FLASH_OB_BORConfig), (28 bytes).
    Removing stm32f4xx_flash.o(i.FLASH_OB_GetBOR), (16 bytes).
    Removing stm32f4xx_flash.o(i.FLASH_OB_GetRDP), (24 bytes).
    Removing stm32f4xx_flash.o(i.FLASH_OB_GetUser), (16 bytes).
    Removing stm32f4xx_flash.o(i.FLASH_OB_GetWRP), (12 bytes).
    Removing stm32f4xx_flash.o(i.FLASH_OB_Launch), (32 bytes).
    Removing stm32f4xx_flash.o(i.FLASH_OB_Lock), (20 bytes).
    Removing stm32f4xx_flash.o(i.FLASH_OB_RDPConfig), (28 bytes).
    Removing stm32f4xx_flash.o(i.FLASH_OB_Unlock), (36 bytes).
    Removing stm32f4xx_flash.o(i.FLASH_OB_UserConfig), (48 bytes).
    Removing stm32f4xx_flash.o(i.FLASH_OB_WRPConfig), (52 bytes).
    Removing stm32f4xx_flash.o(i.FLASH_PrefetchBufferCmd), (36 bytes).
    Removing stm32f4xx_flash.o(i.FLASH_ProgramByte), (76 bytes).
    Removing stm32f4xx_flash.o(i.FLASH_ProgramDoubleWord), (84 bytes).
    Removing stm32f4xx_flash.o(i.FLASH_ProgramHalfWord), (80 bytes).
    Removing stm32f4xx_flash.o(i.FLASH_ProgramWord), (80 bytes).
    Removing stm32f4xx_flash.o(i.FLASH_SetLatency), (12 bytes).
    Removing stm32f4xx_flash.o(i.FLASH_Unlock), (36 bytes).
    Removing stm32f4xx_flash.o(i.FLASH_WaitForLastOperation), (34 bytes).
    Removing stm32f4xx_fsmc.o(.rev16_text), (4 bytes).
    Removing stm32f4xx_fsmc.o(.revsh_text), (4 bytes).
    Removing stm32f4xx_fsmc.o(.rrx_text), (6 bytes).
    Removing stm32f4xx_fsmc.o(i.FSMC_ClearFlag), (64 bytes).
    Removing stm32f4xx_fsmc.o(i.FSMC_ClearITPendingBit), (72 bytes).
    Removing stm32f4xx_fsmc.o(i.FSMC_GetECC), (28 bytes).
    Removing stm32f4xx_fsmc.o(i.FSMC_GetFlagStatus), (56 bytes).
    Removing stm32f4xx_fsmc.o(i.FSMC_GetITStatus), (68 bytes).
    Removing stm32f4xx_fsmc.o(i.FSMC_ITConfig), (128 bytes).
    Removing stm32f4xx_fsmc.o(i.FSMC_NANDCmd), (92 bytes).
    Removing stm32f4xx_fsmc.o(i.FSMC_NANDDeInit), (68 bytes).
    Removing stm32f4xx_fsmc.o(i.FSMC_NANDECCCmd), (92 bytes).
    Removing stm32f4xx_fsmc.o(i.FSMC_NANDInit), (136 bytes).
    Removing stm32f4xx_fsmc.o(i.FSMC_NANDStructInit), (54 bytes).
    Removing stm32f4xx_fsmc.o(i.FSMC_NORSRAMCmd), (52 bytes).
    Removing stm32f4xx_fsmc.o(i.FSMC_NORSRAMDeInit), (54 bytes).
    Removing stm32f4xx_fsmc.o(i.FSMC_NORSRAMInit), (230 bytes).
    Removing stm32f4xx_fsmc.o(i.FSMC_NORSRAMStructInit), (114 bytes).
    Removing stm32f4xx_fsmc.o(i.FSMC_PCCARDCmd), (48 bytes).
    Removing stm32f4xx_fsmc.o(i.FSMC_PCCARDDeInit), (40 bytes).
    Removing stm32f4xx_fsmc.o(i.FSMC_PCCARDInit), (132 bytes).
    Removing stm32f4xx_fsmc.o(i.FSMC_PCCARDStructInit), (60 bytes).
    Removing stm32f4xx_gpio.o(.rev16_text), (4 bytes).
    Removing stm32f4xx_gpio.o(.revsh_text), (4 bytes).
    Removing stm32f4xx_gpio.o(.rrx_text), (6 bytes).
    Removing stm32f4xx_gpio.o(i.GPIO_DeInit), (256 bytes).
    Removing stm32f4xx_gpio.o(i.GPIO_PinLockConfig), (34 bytes).
    Removing stm32f4xx_gpio.o(i.GPIO_ReadInputData), (8 bytes).
    Removing stm32f4xx_gpio.o(i.GPIO_ReadOutputData), (8 bytes).
    Removing stm32f4xx_gpio.o(i.GPIO_ReadOutputDataBit), (18 bytes).
    Removing stm32f4xx_gpio.o(i.GPIO_StructInit), (18 bytes).
    Removing stm32f4xx_gpio.o(i.GPIO_ToggleBits), (8 bytes).
    Removing stm32f4xx_gpio.o(i.GPIO_Write), (4 bytes).
    Removing stm32f4xx_gpio.o(i.GPIO_WriteBit), (10 bytes).
    Removing stm32f4xx_hash.o(.rev16_text), (4 bytes).
    Removing stm32f4xx_hash.o(.revsh_text), (4 bytes).
    Removing stm32f4xx_hash.o(.rrx_text), (6 bytes).
    Removing stm32f4xx_hash.o(i.HASH_ClearFlag), (12 bytes).
    Removing stm32f4xx_hash.o(i.HASH_ClearITPendingBit), (16 bytes).
    Removing stm32f4xx_hash.o(i.HASH_DMACmd), (36 bytes).
    Removing stm32f4xx_hash.o(i.HASH_DataIn), (12 bytes).
    Removing stm32f4xx_hash.o(i.HASH_DeInit), (20 bytes).
    Removing stm32f4xx_hash.o(i.HASH_GetDigest), (44 bytes).
    Removing stm32f4xx_hash.o(i.HASH_GetFlagStatus), (44 bytes).
    Removing stm32f4xx_hash.o(i.HASH_GetITStatus), (32 bytes).
    Removing stm32f4xx_hash.o(i.HASH_GetInFIFOWordsNbr), (16 bytes).
    Removing stm32f4xx_hash.o(i.HASH_ITConfig), (36 bytes).
    Removing stm32f4xx_hash.o(i.HASH_Init), (80 bytes).
    Removing stm32f4xx_hash.o(i.HASH_Reset), (20 bytes).
    Removing stm32f4xx_hash.o(i.HASH_RestoreContext), (68 bytes).
    Removing stm32f4xx_hash.o(i.HASH_SaveContext), (60 bytes).
    Removing stm32f4xx_hash.o(i.HASH_SetLastWordValidBitsNbr), (28 bytes).
    Removing stm32f4xx_hash.o(i.HASH_StartDigest), (20 bytes).
    Removing stm32f4xx_hash.o(i.HASH_StructInit), (12 bytes).
    Removing stm32f4xx_hash_md5.o(.rev16_text), (4 bytes).
    Removing stm32f4xx_hash_md5.o(.revsh_text), (4 bytes).
    Removing stm32f4xx_hash_md5.o(.rrx_text), (6 bytes).
    Removing stm32f4xx_hash_md5.o(i.HASH_MD5), (180 bytes).
    Removing stm32f4xx_hash_md5.o(i.HMAC_MD5), (354 bytes).
    Removing stm32f4xx_hash_sha1.o(.rev16_text), (4 bytes).
    Removing stm32f4xx_hash_sha1.o(.revsh_text), (4 bytes).
    Removing stm32f4xx_hash_sha1.o(.rrx_text), (6 bytes).
    Removing stm32f4xx_hash_sha1.o(i.HASH_SHA1), (186 bytes).
    Removing stm32f4xx_hash_sha1.o(i.HMAC_SHA1), (362 bytes).
    Removing stm32f4xx_i2c.o(.rev16_text), (4 bytes).
    Removing stm32f4xx_i2c.o(.revsh_text), (4 bytes).
    Removing stm32f4xx_i2c.o(.rrx_text), (6 bytes).
    Removing stm32f4xx_i2c.o(i.I2C_ARPCmd), (24 bytes).
    Removing stm32f4xx_i2c.o(i.I2C_AcknowledgeConfig), (24 bytes).
    Removing stm32f4xx_i2c.o(i.I2C_CalculatePEC), (24 bytes).
    Removing stm32f4xx_i2c.o(i.I2C_CheckEvent), (42 bytes).
    Removing stm32f4xx_i2c.o(i.I2C_ClearFlag), (12 bytes).
    Removing stm32f4xx_i2c.o(i.I2C_ClearITPendingBit), (12 bytes).
    Removing stm32f4xx_i2c.o(i.I2C_Cmd), (24 bytes).
    Removing stm32f4xx_i2c.o(i.I2C_DMACmd), (24 bytes).
    Removing stm32f4xx_i2c.o(i.I2C_DMALastTransferCmd), (24 bytes).
    Removing stm32f4xx_i2c.o(i.I2C_DeInit), (96 bytes).
    Removing stm32f4xx_i2c.o(i.I2C_DualAddressCmd), (24 bytes).
    Removing stm32f4xx_i2c.o(i.I2C_FastModeDutyCycleConfig), (28 bytes).
    Removing stm32f4xx_i2c.o(i.I2C_GeneralCallCmd), (24 bytes).
    Removing stm32f4xx_i2c.o(i.I2C_GenerateSTART), (24 bytes).
    Removing stm32f4xx_i2c.o(i.I2C_GenerateSTOP), (24 bytes).
    Removing stm32f4xx_i2c.o(i.I2C_GetFlagStatus), (58 bytes).
    Removing stm32f4xx_i2c.o(i.I2C_GetITStatus), (38 bytes).
    Removing stm32f4xx_i2c.o(i.I2C_GetLastEvent), (26 bytes).
    Removing stm32f4xx_i2c.o(i.I2C_GetPEC), (8 bytes).
    Removing stm32f4xx_i2c.o(i.I2C_ITConfig), (18 bytes).
    Removing stm32f4xx_i2c.o(i.I2C_Init), (232 bytes).
    Removing stm32f4xx_i2c.o(i.I2C_NACKPositionConfig), (28 bytes).
    Removing stm32f4xx_i2c.o(i.I2C_OwnAddress2Config), (22 bytes).
    Removing stm32f4xx_i2c.o(i.I2C_PECPositionConfig), (28 bytes).
    Removing stm32f4xx_i2c.o(i.I2C_ReadRegister), (22 bytes).
    Removing stm32f4xx_i2c.o(i.I2C_ReceiveData), (8 bytes).
    Removing stm32f4xx_i2c.o(i.I2C_SMBusAlertConfig), (28 bytes).
    Removing stm32f4xx_i2c.o(i.I2C_Send7bitAddress), (16 bytes).
    Removing stm32f4xx_i2c.o(i.I2C_SendData), (4 bytes).
    Removing stm32f4xx_i2c.o(i.I2C_SoftwareResetCmd), (22 bytes).
    Removing stm32f4xx_i2c.o(i.I2C_StretchClockCmd), (24 bytes).
    Removing stm32f4xx_i2c.o(i.I2C_StructInit), (30 bytes).
    Removing stm32f4xx_i2c.o(i.I2C_TransmitPEC), (24 bytes).
    Removing stm32f4xx_iwdg.o(.rev16_text), (4 bytes).
    Removing stm32f4xx_iwdg.o(.revsh_text), (4 bytes).
    Removing stm32f4xx_iwdg.o(.rrx_text), (6 bytes).
    Removing stm32f4xx_iwdg.o(i.IWDG_Enable), (16 bytes).
    Removing stm32f4xx_iwdg.o(i.IWDG_GetFlagStatus), (24 bytes).
    Removing stm32f4xx_iwdg.o(i.IWDG_ReloadCounter), (16 bytes).
    Removing stm32f4xx_iwdg.o(i.IWDG_SetPrescaler), (12 bytes).
    Removing stm32f4xx_iwdg.o(i.IWDG_SetReload), (12 bytes).
    Removing stm32f4xx_iwdg.o(i.IWDG_WriteAccessCmd), (12 bytes).
    Removing stm32f4xx_pwr.o(.rev16_text), (4 bytes).
    Removing stm32f4xx_pwr.o(.revsh_text), (4 bytes).
    Removing stm32f4xx_pwr.o(.rrx_text), (6 bytes).
    Removing stm32f4xx_pwr.o(i.PWR_BackupAccessCmd), (12 bytes).
    Removing stm32f4xx_pwr.o(i.PWR_BackupRegulatorCmd), (12 bytes).
    Removing stm32f4xx_pwr.o(i.PWR_ClearFlag), (20 bytes).
    Removing stm32f4xx_pwr.o(i.PWR_DeInit), (22 bytes).
    Removing stm32f4xx_pwr.o(i.PWR_EnterSTANDBYMode), (52 bytes).
    Removing stm32f4xx_pwr.o(i.PWR_EnterSTOPMode), (64 bytes).
    Removing stm32f4xx_pwr.o(i.PWR_FlashPowerDownCmd), (12 bytes).
    Removing stm32f4xx_pwr.o(i.PWR_GetFlagStatus), (24 bytes).
    Removing stm32f4xx_pwr.o(i.PWR_MainRegulatorModeConfig), (36 bytes).
    Removing stm32f4xx_pwr.o(i.PWR_PVDCmd), (12 bytes).
    Removing stm32f4xx_pwr.o(i.PWR_PVDLevelConfig), (24 bytes).
    Removing stm32f4xx_pwr.o(i.PWR_WakeUpPinCmd), (12 bytes).
    Removing stm32f4xx_rcc.o(.rev16_text), (4 bytes).
    Removing stm32f4xx_rcc.o(.revsh_text), (4 bytes).
    Removing stm32f4xx_rcc.o(.rrx_text), (6 bytes).
    Removing stm32f4xx_rcc.o(i.RCC_AHB1PeriphClockLPModeCmd), (32 bytes).
    Removing stm32f4xx_rcc.o(i.RCC_AHB1PeriphResetCmd), (32 bytes).
    Removing stm32f4xx_rcc.o(i.RCC_AHB2PeriphClockCmd), (32 bytes).
    Removing stm32f4xx_rcc.o(i.RCC_AHB2PeriphClockLPModeCmd), (32 bytes).
    Removing stm32f4xx_rcc.o(i.RCC_AHB2PeriphResetCmd), (32 bytes).
    Removing stm32f4xx_rcc.o(i.RCC_AHB3PeriphClockCmd), (32 bytes).
    Removing stm32f4xx_rcc.o(i.RCC_AHB3PeriphClockLPModeCmd), (32 bytes).
    Removing stm32f4xx_rcc.o(i.RCC_AHB3PeriphResetCmd), (32 bytes).
    Removing stm32f4xx_rcc.o(i.RCC_APB1PeriphClockLPModeCmd), (32 bytes).
    Removing stm32f4xx_rcc.o(i.RCC_APB2PeriphClockLPModeCmd), (32 bytes).
    Removing stm32f4xx_rcc.o(i.RCC_AdjustHSICalibrationValue), (24 bytes).
    Removing stm32f4xx_rcc.o(i.RCC_BackupResetCmd), (12 bytes).
    Removing stm32f4xx_rcc.o(i.RCC_ClearFlag), (20 bytes).
    Removing stm32f4xx_rcc.o(i.RCC_ClearITPendingBit), (12 bytes).
    Removing stm32f4xx_rcc.o(i.RCC_ClockSecuritySystemCmd), (12 bytes).
    Removing stm32f4xx_rcc.o(i.RCC_DeInit), (72 bytes).
    Removing stm32f4xx_rcc.o(i.RCC_GetFlagStatus), (64 bytes).
    Removing stm32f4xx_rcc.o(i.RCC_GetITStatus), (24 bytes).
    Removing stm32f4xx_rcc.o(i.RCC_GetSYSCLKSource), (16 bytes).
    Removing stm32f4xx_rcc.o(i.RCC_HCLKConfig), (24 bytes).
    Removing stm32f4xx_rcc.o(i.RCC_HSEConfig), (16 bytes).
    Removing stm32f4xx_rcc.o(i.RCC_HSICmd), (12 bytes).
    Removing stm32f4xx_rcc.o(i.RCC_I2SCLKConfig), (12 bytes).
    Removing stm32f4xx_rcc.o(i.RCC_ITConfig), (32 bytes).
    Removing stm32f4xx_rcc.o(i.RCC_LSEConfig), (44 bytes).
    Removing stm32f4xx_rcc.o(i.RCC_LSICmd), (12 bytes).
    Removing stm32f4xx_rcc.o(i.RCC_MCO1Config), (28 bytes).
    Removing stm32f4xx_rcc.o(i.RCC_MCO2Config), (28 bytes).
    Removing stm32f4xx_rcc.o(i.RCC_PCLK1Config), (24 bytes).
    Removing stm32f4xx_rcc.o(i.RCC_PCLK2Config), (24 bytes).
    Removing stm32f4xx_rcc.o(i.RCC_PLLCmd), (12 bytes).
    Removing stm32f4xx_rcc.o(i.RCC_PLLConfig), (36 bytes).
    Removing stm32f4xx_rcc.o(i.RCC_PLLI2SCmd), (12 bytes).
    Removing stm32f4xx_rcc.o(i.RCC_PLLI2SConfig), (16 bytes).
    Removing stm32f4xx_rcc.o(i.RCC_RTCCLKCmd), (12 bytes).
    Removing stm32f4xx_rcc.o(i.RCC_RTCCLKConfig), (60 bytes).
    Removing stm32f4xx_rcc.o(i.RCC_SYSCLKConfig), (24 bytes).
    Removing stm32f4xx_rcc.o(i.RCC_WaitForHSEStartUp), (56 bytes).
    Removing stm32f4xx_rng.o(.rev16_text), (4 bytes).
    Removing stm32f4xx_rng.o(.revsh_text), (4 bytes).
    Removing stm32f4xx_rng.o(.rrx_text), (6 bytes).
    Removing stm32f4xx_rng.o(i.RNG_ClearFlag), (16 bytes).
    Removing stm32f4xx_rng.o(i.RNG_ClearITPendingBit), (16 bytes).
    Removing stm32f4xx_rng.o(i.RNG_Cmd), (36 bytes).
    Removing stm32f4xx_rng.o(i.RNG_DeInit), (20 bytes).
    Removing stm32f4xx_rng.o(i.RNG_GetFlagStatus), (24 bytes).
    Removing stm32f4xx_rng.o(i.RNG_GetITStatus), (24 bytes).
    Removing stm32f4xx_rng.o(i.RNG_GetRandomNumber), (12 bytes).
    Removing stm32f4xx_rng.o(i.RNG_ITConfig), (36 bytes).
    Removing stm32f4xx_rtc.o(.rev16_text), (4 bytes).
    Removing stm32f4xx_rtc.o(.revsh_text), (4 bytes).
    Removing stm32f4xx_rtc.o(.rrx_text), (6 bytes).
    Removing stm32f4xx_rtc.o(i.RTC_AlarmCmd), (116 bytes).
    Removing stm32f4xx_rtc.o(i.RTC_AlarmStructInit), (22 bytes).
    Removing stm32f4xx_rtc.o(i.RTC_AlarmSubSecondConfig), (52 bytes).
    Removing stm32f4xx_rtc.o(i.RTC_Bcd2ToByte), (22 bytes).
    Removing stm32f4xx_rtc.o(i.RTC_BypassShadowCmd), (60 bytes).
    Removing stm32f4xx_rtc.o(i.RTC_ByteToBcd2), (28 bytes).
    Removing stm32f4xx_rtc.o(i.RTC_CalibOutputCmd), (60 bytes).
    Removing stm32f4xx_rtc.o(i.RTC_CalibOutputConfig), (48 bytes).
    Removing stm32f4xx_rtc.o(i.RTC_ClearFlag), (28 bytes).
    Removing stm32f4xx_rtc.o(i.RTC_ClearITPendingBit), (32 bytes).
    Removing stm32f4xx_rtc.o(i.RTC_CoarseCalibCmd), (80 bytes).
    Removing stm32f4xx_rtc.o(i.RTC_CoarseCalibConfig), (56 bytes).
    Removing stm32f4xx_rtc.o(i.RTC_DateStructInit), (14 bytes).
    Removing stm32f4xx_rtc.o(i.RTC_DayLightSavingConfig), (56 bytes).
    Removing stm32f4xx_rtc.o(i.RTC_DeInit), (192 bytes).
    Removing stm32f4xx_rtc.o(i.RTC_EnterInitMode), (80 bytes).
    Removing stm32f4xx_rtc.o(i.RTC_ExitInitMode), (20 bytes).
    Removing stm32f4xx_rtc.o(i.RTC_GetAlarm), (116 bytes).
    Removing stm32f4xx_rtc.o(i.RTC_GetAlarmSubSecond), (36 bytes).
    Removing stm32f4xx_rtc.o(i.RTC_GetDate), (76 bytes).
    Removing stm32f4xx_rtc.o(i.RTC_GetFlagStatus), (40 bytes).
    Removing stm32f4xx_rtc.o(i.RTC_GetITStatus), (64 bytes).
    Removing stm32f4xx_rtc.o(i.RTC_GetStoreOperation), (16 bytes).
    Removing stm32f4xx_rtc.o(i.RTC_GetSubSecond), (20 bytes).
    Removing stm32f4xx_rtc.o(i.RTC_GetTime), (80 bytes).
    Removing stm32f4xx_rtc.o(i.RTC_GetTimeStamp), (156 bytes).
    Removing stm32f4xx_rtc.o(i.RTC_GetTimeStampSubSecond), (12 bytes).
    Removing stm32f4xx_rtc.o(i.RTC_GetWakeUpCounter), (12 bytes).
    Removing stm32f4xx_rtc.o(i.RTC_ITConfig), (100 bytes).
    Removing stm32f4xx_rtc.o(i.RTC_Init), (100 bytes).
    Removing stm32f4xx_rtc.o(i.RTC_OutputConfig), (56 bytes).
    Removing stm32f4xx_rtc.o(i.RTC_OutputTypeConfig), (28 bytes).
    Removing stm32f4xx_rtc.o(i.RTC_ReadBackupRegister), (32 bytes).
    Removing stm32f4xx_rtc.o(i.RTC_RefClockCmd), (80 bytes).
    Removing stm32f4xx_rtc.o(i.RTC_SetAlarm), (236 bytes).
    Removing stm32f4xx_rtc.o(i.RTC_SetDate), (184 bytes).
    Removing stm32f4xx_rtc.o(i.RTC_SetTime), (192 bytes).
    Removing stm32f4xx_rtc.o(i.RTC_SetWakeUpCounter), (28 bytes).
    Removing stm32f4xx_rtc.o(i.RTC_SmoothCalibConfig), (96 bytes).
    Removing stm32f4xx_rtc.o(i.RTC_StructInit), (14 bytes).
    Removing stm32f4xx_rtc.o(i.RTC_SynchroShiftConfig), (124 bytes).
    Removing stm32f4xx_rtc.o(i.RTC_TamperCmd), (32 bytes).
    Removing stm32f4xx_rtc.o(i.RTC_TamperFilterConfig), (28 bytes).
    Removing stm32f4xx_rtc.o(i.RTC_TamperPinSelection), (28 bytes).
    Removing stm32f4xx_rtc.o(i.RTC_TamperPinsPrechargeDuration), (28 bytes).
    Removing stm32f4xx_rtc.o(i.RTC_TamperPullUpCmd), (36 bytes).
    Removing stm32f4xx_rtc.o(i.RTC_TamperSamplingFreqConfig), (28 bytes).
    Removing stm32f4xx_rtc.o(i.RTC_TamperTriggerConfig), (36 bytes).
    Removing stm32f4xx_rtc.o(i.RTC_TimeStampCmd), (56 bytes).
    Removing stm32f4xx_rtc.o(i.RTC_TimeStampOnTamperDetectionCmd), (36 bytes).
    Removing stm32f4xx_rtc.o(i.RTC_TimeStampPinSelection), (28 bytes).
    Removing stm32f4xx_rtc.o(i.RTC_TimeStructInit), (12 bytes).
    Removing stm32f4xx_rtc.o(i.RTC_WaitForSynchro), (96 bytes).
    Removing stm32f4xx_rtc.o(i.RTC_WakeUpClockConfig), (48 bytes).
    Removing stm32f4xx_rtc.o(i.RTC_WakeUpCmd), (120 bytes).
    Removing stm32f4xx_rtc.o(i.RTC_WriteBackupRegister), (28 bytes).
    Removing stm32f4xx_rtc.o(i.RTC_WriteProtectionCmd), (28 bytes).
    Removing stm32f4xx_sdio.o(.rev16_text), (4 bytes).
    Removing stm32f4xx_sdio.o(.revsh_text), (4 bytes).
    Removing stm32f4xx_sdio.o(.rrx_text), (6 bytes).
    Removing stm32f4xx_sdio.o(i.SDIO_CEATAITCmd), (16 bytes).
    Removing stm32f4xx_sdio.o(i.SDIO_ClearFlag), (12 bytes).
    Removing stm32f4xx_sdio.o(i.SDIO_ClearITPendingBit), (12 bytes).
    Removing stm32f4xx_sdio.o(i.SDIO_ClockCmd), (12 bytes).
    Removing stm32f4xx_sdio.o(i.SDIO_CmdStructInit), (14 bytes).
    Removing stm32f4xx_sdio.o(i.SDIO_CommandCompletionCmd), (12 bytes).
    Removing stm32f4xx_sdio.o(i.SDIO_DMACmd), (12 bytes).
    Removing stm32f4xx_sdio.o(i.SDIO_DataConfig), (52 bytes).
    Removing stm32f4xx_sdio.o(i.SDIO_DataStructInit), (20 bytes).
    Removing stm32f4xx_sdio.o(i.SDIO_DeInit), (22 bytes).
    Removing stm32f4xx_sdio.o(i.SDIO_GetCommandResponse), (12 bytes).
    Removing stm32f4xx_sdio.o(i.SDIO_GetDataCounter), (12 bytes).
    Removing stm32f4xx_sdio.o(i.SDIO_GetFIFOCount), (12 bytes).
    Removing stm32f4xx_sdio.o(i.SDIO_GetFlagStatus), (24 bytes).
    Removing stm32f4xx_sdio.o(i.SDIO_GetITStatus), (24 bytes).
    Removing stm32f4xx_sdio.o(i.SDIO_GetPowerState), (16 bytes).
    Removing stm32f4xx_sdio.o(i.SDIO_GetResponse), (24 bytes).
    Removing stm32f4xx_sdio.o(i.SDIO_ITConfig), (32 bytes).
    Removing stm32f4xx_sdio.o(i.SDIO_Init), (48 bytes).
    Removing stm32f4xx_sdio.o(i.SDIO_ReadData), (12 bytes).
    Removing stm32f4xx_sdio.o(i.SDIO_SendCEATACmd), (12 bytes).
    Removing stm32f4xx_sdio.o(i.SDIO_SendCommand), (44 bytes).
    Removing stm32f4xx_sdio.o(i.SDIO_SendSDIOSuspendCmd), (12 bytes).
    Removing stm32f4xx_sdio.o(i.SDIO_SetPowerState), (12 bytes).
    Removing stm32f4xx_sdio.o(i.SDIO_SetSDIOOperation), (12 bytes).
    Removing stm32f4xx_sdio.o(i.SDIO_SetSDIOReadWaitMode), (12 bytes).
    Removing stm32f4xx_sdio.o(i.SDIO_StartSDIOReadWait), (12 bytes).
    Removing stm32f4xx_sdio.o(i.SDIO_StopSDIOReadWait), (12 bytes).
    Removing stm32f4xx_sdio.o(i.SDIO_StructInit), (16 bytes).
    Removing stm32f4xx_sdio.o(i.SDIO_WriteData), (12 bytes).
    Removing stm32f4xx_spi.o(.rev16_text), (4 bytes).
    Removing stm32f4xx_spi.o(.revsh_text), (4 bytes).
    Removing stm32f4xx_spi.o(.rrx_text), (6 bytes).
    Removing stm32f4xx_spi.o(i.I2S_Cmd), (24 bytes).
    Removing stm32f4xx_spi.o(i.I2S_FullDuplexConfig), (80 bytes).
    Removing stm32f4xx_spi.o(i.I2S_Init), (360 bytes).
    Removing stm32f4xx_spi.o(i.I2S_StructInit), (20 bytes).
    Removing stm32f4xx_spi.o(i.SPI_BiDirectionalLineConfig), (28 bytes).
    Removing stm32f4xx_spi.o(i.SPI_CalculateCRC), (24 bytes).
    Removing stm32f4xx_spi.o(i.SPI_Cmd), (24 bytes).
    Removing stm32f4xx_spi.o(i.SPI_DataSizeConfig), (18 bytes).
    Removing stm32f4xx_spi.o(i.SPI_GetCRC), (16 bytes).
    Removing stm32f4xx_spi.o(i.SPI_GetCRCPolynomial), (6 bytes).
    Removing stm32f4xx_spi.o(i.SPI_I2S_ClearFlag), (6 bytes).
    Removing stm32f4xx_spi.o(i.SPI_I2S_ClearITPendingBit), (20 bytes).
    Removing stm32f4xx_spi.o(i.SPI_I2S_DMACmd), (18 bytes).
    Removing stm32f4xx_spi.o(i.SPI_I2S_DeInit), (88 bytes).
    Removing stm32f4xx_spi.o(i.SPI_I2S_GetFlagStatus), (18 bytes).
    Removing stm32f4xx_spi.o(i.SPI_I2S_GetITStatus), (52 bytes).
    Removing stm32f4xx_spi.o(i.SPI_I2S_ITConfig), (32 bytes).
    Removing stm32f4xx_spi.o(i.SPI_I2S_ReceiveData), (6 bytes).
    Removing stm32f4xx_spi.o(i.SPI_I2S_SendData), (4 bytes).
    Removing stm32f4xx_spi.o(i.SPI_Init), (60 bytes).
    Removing stm32f4xx_spi.o(i.SPI_NSSInternalSoftwareConfig), (30 bytes).
    Removing stm32f4xx_spi.o(i.SPI_SSOutputCmd), (24 bytes).
    Removing stm32f4xx_spi.o(i.SPI_StructInit), (24 bytes).
    Removing stm32f4xx_spi.o(i.SPI_TIModeCmd), (24 bytes).
    Removing stm32f4xx_spi.o(i.SPI_TransmitCRC), (10 bytes).
    Removing stm32f4xx_syscfg.o(.rev16_text), (4 bytes).
    Removing stm32f4xx_syscfg.o(.revsh_text), (4 bytes).
    Removing stm32f4xx_syscfg.o(.rrx_text), (6 bytes).
    Removing stm32f4xx_syscfg.o(i.SYSCFG_CompensationCellCmd), (12 bytes).
    Removing stm32f4xx_syscfg.o(i.SYSCFG_DeInit), (22 bytes).
    Removing stm32f4xx_syscfg.o(i.SYSCFG_ETH_MediaInterfaceConfig), (12 bytes).
    Removing stm32f4xx_syscfg.o(i.SYSCFG_EXTILineConfig), (64 bytes).
    Removing stm32f4xx_syscfg.o(i.SYSCFG_GetCompensationCellStatus), (24 bytes).
    Removing stm32f4xx_syscfg.o(i.SYSCFG_MemoryRemapConfig), (12 bytes).
    Removing stm32f4xx_tim.o(.rev16_text), (4 bytes).
    Removing stm32f4xx_tim.o(.revsh_text), (4 bytes).
    Removing stm32f4xx_tim.o(.rrx_text), (6 bytes).
    Removing stm32f4xx_tim.o(i.TI1_Config), (58 bytes).
    Removing stm32f4xx_tim.o(i.TI2_Config), (80 bytes).
    Removing stm32f4xx_tim.o(i.TI3_Config), (72 bytes).
    Removing stm32f4xx_tim.o(i.TI4_Config), (80 bytes).
    Removing stm32f4xx_tim.o(i.TIM_BDTRConfig), (32 bytes).
    Removing stm32f4xx_tim.o(i.TIM_BDTRStructInit), (18 bytes).
    Removing stm32f4xx_tim.o(i.TIM_CCPreloadControl), (24 bytes).
    Removing stm32f4xx_tim.o(i.TIM_CCxCmd), (30 bytes).
    Removing stm32f4xx_tim.o(i.TIM_CCxNCmd), (30 bytes).
    Removing stm32f4xx_tim.o(i.TIM_ClearFlag), (6 bytes).
    Removing stm32f4xx_tim.o(i.TIM_ClearOC1Ref), (18 bytes).
    Removing stm32f4xx_tim.o(i.TIM_ClearOC2Ref), (24 bytes).
    Removing stm32f4xx_tim.o(i.TIM_ClearOC3Ref), (18 bytes).
    Removing stm32f4xx_tim.o(i.TIM_ClearOC4Ref), (24 bytes).
    Removing stm32f4xx_tim.o(i.TIM_CounterModeConfig), (18 bytes).
    Removing stm32f4xx_tim.o(i.TIM_DMACmd), (18 bytes).
    Removing stm32f4xx_tim.o(i.TIM_DMAConfig), (10 bytes).
    Removing stm32f4xx_tim.o(i.TIM_DeInit), (400 bytes).
    Removing stm32f4xx_tim.o(i.TIM_ETRClockMode1Config), (54 bytes).
    Removing stm32f4xx_tim.o(i.TIM_ETRClockMode2Config), (32 bytes).
    Removing stm32f4xx_tim.o(i.TIM_ETRConfig), (28 bytes).
    Removing stm32f4xx_tim.o(i.TIM_EncoderInterfaceConfig), (66 bytes).
    Removing stm32f4xx_tim.o(i.TIM_ForcedOC1Config), (18 bytes).
    Removing stm32f4xx_tim.o(i.TIM_ForcedOC2Config), (26 bytes).
    Removing stm32f4xx_tim.o(i.TIM_ForcedOC3Config), (18 bytes).
    Removing stm32f4xx_tim.o(i.TIM_ForcedOC4Config), (26 bytes).
    Removing stm32f4xx_tim.o(i.TIM_GenerateEvent), (4 bytes).
    Removing stm32f4xx_tim.o(i.TIM_GetCapture1), (6 bytes).
    Removing stm32f4xx_tim.o(i.TIM_GetCapture2), (6 bytes).
    Removing stm32f4xx_tim.o(i.TIM_GetCapture3), (6 bytes).
    Removing stm32f4xx_tim.o(i.TIM_GetCapture4), (6 bytes).
    Removing stm32f4xx_tim.o(i.TIM_GetCounter), (6 bytes).
    Removing stm32f4xx_tim.o(i.TIM_GetFlagStatus), (18 bytes).
    Removing stm32f4xx_tim.o(i.TIM_GetPrescaler), (6 bytes).
    Removing stm32f4xx_tim.o(i.TIM_ICInit), (110 bytes).
    Removing stm32f4xx_tim.o(i.TIM_ICStructInit), (18 bytes).
    Removing stm32f4xx_tim.o(i.TIM_ITRxExternalClockConfig), (24 bytes).
    Removing stm32f4xx_tim.o(i.TIM_InternalClockConfig), (12 bytes).
    Removing stm32f4xx_tim.o(i.TIM_OC1FastConfig), (18 bytes).
    Removing stm32f4xx_tim.o(i.TIM_OC1NPolarityConfig), (18 bytes).
    Removing stm32f4xx_tim.o(i.TIM_OC1PolarityConfig), (18 bytes).
    Removing stm32f4xx_tim.o(i.TIM_OC2FastConfig), (26 bytes).
    Removing stm32f4xx_tim.o(i.TIM_OC2NPolarityConfig), (26 bytes).
    Removing stm32f4xx_tim.o(i.TIM_OC2PolarityConfig), (26 bytes).
    Removing stm32f4xx_tim.o(i.TIM_OC3FastConfig), (18 bytes).
    Removing stm32f4xx_tim.o(i.TIM_OC3Init), (160 bytes).
    Removing stm32f4xx_tim.o(i.TIM_OC3NPolarityConfig), (26 bytes).
    Removing stm32f4xx_tim.o(i.TIM_OC3PolarityConfig), (26 bytes).
    Removing stm32f4xx_tim.o(i.TIM_OC3PreloadConfig), (18 bytes).
    Removing stm32f4xx_tim.o(i.TIM_OC4FastConfig), (26 bytes).
    Removing stm32f4xx_tim.o(i.TIM_OC4Init), (120 bytes).
    Removing stm32f4xx_tim.o(i.TIM_OC4PolarityConfig), (26 bytes).
    Removing stm32f4xx_tim.o(i.TIM_OC4PreloadConfig), (26 bytes).
    Removing stm32f4xx_tim.o(i.TIM_OCStructInit), (20 bytes).
    Removing stm32f4xx_tim.o(i.TIM_PWMIConfig), (124 bytes).
    Removing stm32f4xx_tim.o(i.TIM_PrescalerConfig), (6 bytes).
    Removing stm32f4xx_tim.o(i.TIM_RemapConfig), (6 bytes).
    Removing stm32f4xx_tim.o(i.TIM_SelectCCDMA), (24 bytes).
    Removing stm32f4xx_tim.o(i.TIM_SelectCOM), (24 bytes).
    Removing stm32f4xx_tim.o(i.TIM_SelectHallSensor), (24 bytes).
    Removing stm32f4xx_tim.o(i.TIM_SelectInputTrigger), (18 bytes).
    Removing stm32f4xx_tim.o(i.TIM_SelectMasterSlaveMode), (18 bytes).
    Removing stm32f4xx_tim.o(i.TIM_SelectOCxM), (86 bytes).
    Removing stm32f4xx_tim.o(i.TIM_SelectOnePulseMode), (18 bytes).
    Removing stm32f4xx_tim.o(i.TIM_SelectOutputTrigger), (18 bytes).
    Removing stm32f4xx_tim.o(i.TIM_SelectSlaveMode), (18 bytes).
    Removing stm32f4xx_tim.o(i.TIM_SetAutoreload), (4 bytes).
    Removing stm32f4xx_tim.o(i.TIM_SetClockDivision), (18 bytes).
    Removing stm32f4xx_tim.o(i.TIM_SetCompare3), (4 bytes).
    Removing stm32f4xx_tim.o(i.TIM_SetCompare4), (4 bytes).
    Removing stm32f4xx_tim.o(i.TIM_SetCounter), (4 bytes).
    Removing stm32f4xx_tim.o(i.TIM_SetIC1Prescaler), (18 bytes).
    Removing stm32f4xx_tim.o(i.TIM_SetIC2Prescaler), (26 bytes).
    Removing stm32f4xx_tim.o(i.TIM_SetIC3Prescaler), (18 bytes).
    Removing stm32f4xx_tim.o(i.TIM_SetIC4Prescaler), (26 bytes).
    Removing stm32f4xx_tim.o(i.TIM_TIxExternalClockConfig), (62 bytes).
    Removing stm32f4xx_tim.o(i.TIM_TimeBaseStructInit), (18 bytes).
    Removing stm32f4xx_tim.o(i.TIM_UpdateDisableConfig), (24 bytes).
    Removing stm32f4xx_tim.o(i.TIM_UpdateRequestConfig), (24 bytes).
    Removing stm32f4xx_usart.o(.rev16_text), (4 bytes).
    Removing stm32f4xx_usart.o(.revsh_text), (4 bytes).
    Removing stm32f4xx_usart.o(.rrx_text), (6 bytes).
    Removing stm32f4xx_usart.o(i.USART_ClearITPendingBit), (30 bytes).
    Removing stm32f4xx_usart.o(i.USART_ClockInit), (32 bytes).
    Removing stm32f4xx_usart.o(i.USART_ClockStructInit), (12 bytes).
    Removing stm32f4xx_usart.o(i.USART_GetFlagStatus), (26 bytes).
    Removing stm32f4xx_usart.o(i.USART_HalfDuplexCmd), (24 bytes).
    Removing stm32f4xx_usart.o(i.USART_IrDACmd), (24 bytes).
    Removing stm32f4xx_usart.o(i.USART_IrDAConfig), (18 bytes).
    Removing stm32f4xx_usart.o(i.USART_LINBreakDetectLengthConfig), (18 bytes).
    Removing stm32f4xx_usart.o(i.USART_LINCmd), (24 bytes).
    Removing stm32f4xx_usart.o(i.USART_OneBitMethodCmd), (24 bytes).
    Removing stm32f4xx_usart.o(i.USART_OverSampling8Cmd), (22 bytes).
    Removing stm32f4xx_usart.o(i.USART_ReceiverWakeUpCmd), (24 bytes).
    Removing stm32f4xx_usart.o(i.USART_SendBreak), (10 bytes).
    Removing stm32f4xx_usart.o(i.USART_SendData), (8 bytes).
    Removing stm32f4xx_usart.o(i.USART_SetAddress), (18 bytes).
    Removing stm32f4xx_usart.o(i.USART_SetGuardTime), (16 bytes).
    Removing stm32f4xx_usart.o(i.USART_SetPrescaler), (16 bytes).
    Removing stm32f4xx_usart.o(i.USART_SmartCardCmd), (24 bytes).
    Removing stm32f4xx_usart.o(i.USART_SmartCardNACKCmd), (24 bytes).
    Removing stm32f4xx_usart.o(i.USART_StructInit), (24 bytes).
    Removing stm32f4xx_usart.o(i.USART_WakeUpConfig), (18 bytes).
    Removing stm32f4xx_wwdg.o(.rev16_text), (4 bytes).
    Removing stm32f4xx_wwdg.o(.revsh_text), (4 bytes).
    Removing stm32f4xx_wwdg.o(.rrx_text), (6 bytes).
    Removing stm32f4xx_wwdg.o(i.WWDG_ClearFlag), (12 bytes).
    Removing stm32f4xx_wwdg.o(i.WWDG_DeInit), (22 bytes).
    Removing stm32f4xx_wwdg.o(i.WWDG_Enable), (16 bytes).
    Removing stm32f4xx_wwdg.o(i.WWDG_EnableIT), (12 bytes).
    Removing stm32f4xx_wwdg.o(i.WWDG_GetFlagStatus), (20 bytes).
    Removing stm32f4xx_wwdg.o(i.WWDG_SetCounter), (16 bytes).
    Removing stm32f4xx_wwdg.o(i.WWDG_SetPrescaler), (24 bytes).
    Removing stm32f4xx_wwdg.o(i.WWDG_SetWindowValue), (40 bytes).
    Removing system_stm32f4xx.o(.rev16_text), (4 bytes).
    Removing system_stm32f4xx.o(.revsh_text), (4 bytes).
    Removing system_stm32f4xx.o(.rrx_text), (6 bytes).
    Removing system_stm32f4xx.o(i.SystemCoreClockUpdate), (192 bytes).
    Removing system_stm32f4xx.o(.data), (20 bytes).
    Removing startup_stm32f4xx.o(HEAP), (512 bytes).
    Removing dneg.o(.text), (6 bytes).
    Removing dfixul.o(.text), (48 bytes).
    Removing cdcmple.o(.text), (48 bytes).

783 unused section(s) (total 30719 bytes) removed from the image.

==============================================================================

Image Symbol Table

    Local Symbols

    Symbol Name                              Value     Ov Type        Size  Object(Section)

    ../clib/../cmprslib/zerorunl2.c          0x00000000   Number         0  __dczerorl2.o ABSOLUTE
    ../clib/microlib/division.c              0x00000000   Number         0  uldiv.o ABSOLUTE
    ../clib/microlib/division.c              0x00000000   Number         0  uidiv.o ABSOLUTE
    ../clib/microlib/errno.c                 0x00000000   Number         0  errno.o ABSOLUTE
    ../clib/microlib/init/entry.s            0x00000000   Number         0  entry11b.o ABSOLUTE
    ../clib/microlib/init/entry.s            0x00000000   Number         0  entry2.o ABSOLUTE
    ../clib/microlib/init/entry.s            0x00000000   Number         0  entry11a.o ABSOLUTE
    ../clib/microlib/init/entry.s            0x00000000   Number         0  entry9a.o ABSOLUTE
    ../clib/microlib/init/entry.s            0x00000000   Number         0  entry.o ABSOLUTE
    ../clib/microlib/init/entry.s            0x00000000   Number         0  entry9b.o ABSOLUTE
    ../clib/microlib/init/entry.s            0x00000000   Number         0  entry10b.o ABSOLUTE
    ../clib/microlib/init/entry.s            0x00000000   Number         0  entry10a.o ABSOLUTE
    ../clib/microlib/init/entry.s            0x00000000   Number         0  entry8b.o ABSOLUTE
    ../clib/microlib/init/entry.s            0x00000000   Number         0  entry8a.o ABSOLUTE
    ../clib/microlib/init/entry.s            0x00000000   Number         0  entry7b.o ABSOLUTE
    ../clib/microlib/init/entry.s            0x00000000   Number         0  entry7a.o ABSOLUTE
    ../clib/microlib/init/entry.s            0x00000000   Number         0  entry5.o ABSOLUTE
    ../clib/microlib/longlong.c              0x00000000   Number         0  llsshr.o ABSOLUTE
    ../clib/microlib/longlong.c              0x00000000   Number         0  llshl.o ABSOLUTE
    ../clib/microlib/longlong.c              0x00000000   Number         0  llushr.o ABSOLUTE
    ../clib/microlib/printf/printf.c         0x00000000   Number         0  printf4.o ABSOLUTE
    ../clib/microlib/printf/printf.c         0x00000000   Number         0  printf6.o ABSOLUTE
    ../clib/microlib/printf/printf.c         0x00000000   Number         0  printf7.o ABSOLUTE
    ../clib/microlib/printf/printf.c         0x00000000   Number         0  printf8.o ABSOLUTE
    ../clib/microlib/printf/printf.c         0x00000000   Number         0  printfa.o ABSOLUTE
    ../clib/microlib/printf/printf.c         0x00000000   Number         0  printf2.o ABSOLUTE
    ../clib/microlib/printf/printf.c         0x00000000   Number         0  printf1.o ABSOLUTE
    ../clib/microlib/printf/printf.c         0x00000000   Number         0  printf0.o ABSOLUTE
    ../clib/microlib/printf/printf.c         0x00000000   Number         0  printfb.o ABSOLUTE
    ../clib/microlib/printf/printf.c         0x00000000   Number         0  printf5.o ABSOLUTE
    ../clib/microlib/printf/printf.c         0x00000000   Number         0  printf3.o ABSOLUTE
    ../clib/microlib/printf/stubs.s          0x00000000   Number         0  stubs.o ABSOLUTE
    ../clib/microlib/string/memcpy.c         0x00000000   Number         0  memcpyb.o ABSOLUTE
    ../clib/microlib/string/memcpy.c         0x00000000   Number         0  memcpya.o ABSOLUTE
    ../clib/microlib/stubs.s                 0x00000000   Number         0  iusefp.o ABSOLUTE
    ../clib/microlib/stubs.s                 0x00000000   Number         0  useno.o ABSOLUTE
    ../fplib/microlib/d2f.c                  0x00000000   Number         0  d2f.o ABSOLUTE
    ../fplib/microlib/f2d.c                  0x00000000   Number         0  f2d.o ABSOLUTE
    ../fplib/microlib/fpadd.c                0x00000000   Number         0  dadd.o ABSOLUTE
    ../fplib/microlib/fpdiv.c                0x00000000   Number         0  ddiv.o ABSOLUTE
    ../fplib/microlib/fpepilogue.c           0x00000000   Number         0  depilogue.o ABSOLUTE
    ../fplib/microlib/fpepilogue.c           0x00000000   Number         0  fepilogue.o ABSOLUTE
    ../fplib/microlib/fpfix.c                0x00000000   Number         0  dfixi.o ABSOLUTE
    ../fplib/microlib/fpfix.c                0x00000000   Number         0  dfixul.o ABSOLUTE
    ../fplib/microlib/fpflt.c                0x00000000   Number         0  dflti.o ABSOLUTE
    ../fplib/microlib/fpflt.c                0x00000000   Number         0  dfltui.o ABSOLUTE
    ../fplib/microlib/fpmul.c                0x00000000   Number         0  dmul.o ABSOLUTE
    ../fplib/microlib/fpneg.c                0x00000000   Number         0  dneg.o ABSOLUTE
    ../fplib/microlib/fpsqrt.c               0x00000000   Number         0  dsqrt.o ABSOLUTE
    ../mathlib/asin.c                        0x00000000   Number         0  asin.o ABSOLUTE
    ../mathlib/asin.c                        0x00000000   Number         0  asin_x.o ABSOLUTE
    ../mathlib/atan.c                        0x00000000   Number         0  atan.o ABSOLUTE
    ../mathlib/atan.c                        0x00000000   Number         0  atan_x.o ABSOLUTE
    ../mathlib/atan2.c                       0x00000000   Number         0  atan2_x.o ABSOLUTE
    ../mathlib/atan2.c                       0x00000000   Number         0  atan2.o ABSOLUTE
    ../mathlib/cos.c                         0x00000000   Number         0  cos_x.o ABSOLUTE
    ../mathlib/cos.c                         0x00000000   Number         0  cos.o ABSOLUTE
    ../mathlib/cos_i.c                       0x00000000   Number         0  cos_i.o ABSOLUTE
    ../mathlib/dunder.c                      0x00000000   Number         0  dunder.o ABSOLUTE
    ../mathlib/fabs.c                        0x00000000   Number         0  fabs.o ABSOLUTE
    ../mathlib/fpclassify.c                  0x00000000   Number         0  fpclassify.o ABSOLUTE
    ../mathlib/poly.c                        0x00000000   Number         0  poly.o ABSOLUTE
    ../mathlib/qnan.c                        0x00000000   Number         0  qnan.o ABSOLUTE
    ../mathlib/rred.c                        0x00000000   Number         0  rred.o ABSOLUTE
    ../mathlib/sin.c                         0x00000000   Number         0  sin.o ABSOLUTE
    ../mathlib/sin.c                         0x00000000   Number         0  sin_x.o ABSOLUTE
    ../mathlib/sin_i.c                       0x00000000   Number         0  sin_i.o ABSOLUTE
    ../mathlib/sin_i.c                       0x00000000   Number         0  sin_i_x.o ABSOLUTE
    ../mathlib/sqrt.c                        0x00000000   Number         0  sqrt_x.o ABSOLUTE
    ../mathlib/sqrt.c                        0x00000000   Number         0  sqrt.o ABSOLUTE
    ..\APP\AUTOMATIC_AIM\Auto_aim.c          0x00000000   Number         0  auto_aim.o ABSOLUTE
    ..\APP\CATCHCONTROL\CatchControl.c       0x00000000   Number         0  catchcontrol.o ABSOLUTE
    ..\APP\CMCONTROL\CMControl.c             0x00000000   Number         0  cmcontrol.o ABSOLUTE
    ..\APP\GIMBALCONTROL\GimbalControl.c     0x00000000   Number         0  gimbalcontrol.o ABSOLUTE
    ..\APP\MONITOR\MonitorControl.c          0x00000000   Number         0  monitorcontrol.o ABSOLUTE
    ..\APP\PID\pid.c                         0x00000000   Number         0  pid.o ABSOLUTE
    ..\APP\REMOTECONTROL\RemoteControl.c     0x00000000   Number         0  remotecontrol.o ABSOLUTE
    ..\APP\SHOOTCONTROL\ShootControl.c       0x00000000   Number         0  shootcontrol.o ABSOLUTE
    ..\ControlTask\ControlTask.c             0x00000000   Number         0  controltask.o ABSOLUTE
    ..\HardWare\ADC\adc.c                    0x00000000   Number         0  adc.o ABSOLUTE
    ..\HardWare\BSP\bsp.c                    0x00000000   Number         0  bsp.o ABSOLUTE
    ..\HardWare\BUZZER\buzzer.c              0x00000000   Number         0  buzzer.o ABSOLUTE
    ..\HardWare\CAN\can.c                    0x00000000   Number         0  can.o ABSOLUTE
    ..\HardWare\CATCHBULLET\CatchBullet.c    0x00000000   Number         0  catchbullet.o ABSOLUTE
    ..\HardWare\CYLINDER\cylinder.c          0x00000000   Number         0  cylinder.o ABSOLUTE
    ..\HardWare\DELAY\delay.c                0x00000000   Number         0  delay.o ABSOLUTE
    ..\HardWare\EULER\euler.c                0x00000000   Number         0  euler.o ABSOLUTE
    ..\HardWare\INFRARED\infrared.c          0x00000000   Number         0  infrared.o ABSOLUTE
    ..\HardWare\LASER\laser.c                0x00000000   Number         0  laser.o ABSOLUTE
    ..\HardWare\LED\led.c                    0x00000000   Number         0  led.o ABSOLUTE
    ..\HardWare\MPU6050\mpu6050_driver.c     0x00000000   Number         0  mpu6050_driver.o ABSOLUTE
    ..\HardWare\MPU6050\mpu6050_i2c.c        0x00000000   Number         0  mpu6050_i2c.o ABSOLUTE
    ..\HardWare\MPU6500\mpu6500.c            0x00000000   Number         0  mpu6500.o ABSOLUTE
    ..\HardWare\PWM\pwm.c                    0x00000000   Number         0  pwm.o ABSOLUTE
    ..\HardWare\RC\rc.c                      0x00000000   Number         0  rc.o ABSOLUTE
    ..\HardWare\SPI\spi.c                    0x00000000   Number         0  spi.o ABSOLUTE
    ..\HardWare\SYS\sys.c                    0x00000000   Number         0  sys.o ABSOLUTE
    ..\HardWare\TIMER\timer.c                0x00000000   Number         0  timer.o ABSOLUTE
    ..\HardWare\UART3\usart3.c               0x00000000   Number         0  usart3.o ABSOLUTE
    ..\HardWare\UART6\usart6.c               0x00000000   Number         0  usart6.o ABSOLUTE
    ..\HardWare\View2MCU_ComProtocal\frame.c 0x00000000   Number         0  frame.o ABSOLUTE
    ..\Lib\CMSIS\Device\ST\STM32F4xx\Source\Templates\arm\startup_stm32f4xx.s 0x00000000   Number         0  startup_stm32f4xx.o ABSOLUTE
    ..\Lib\CMSIS\Device\ST\STM32F4xx\Source\Templates\system_stm32f4xx.c 0x00000000   Number         0  system_stm32f4xx.o ABSOLUTE
    ..\Lib\STM32F4xx_StdPeriph_Driver\src\misc.c 0x00000000   Number         0  misc.o ABSOLUTE
    ..\Lib\STM32F4xx_StdPeriph_Driver\src\stm32f4xx_adc.c 0x00000000   Number         0  stm32f4xx_adc.o ABSOLUTE
    ..\Lib\STM32F4xx_StdPeriph_Driver\src\stm32f4xx_can.c 0x00000000   Number         0  stm32f4xx_can.o ABSOLUTE
    ..\Lib\STM32F4xx_StdPeriph_Driver\src\stm32f4xx_crc.c 0x00000000   Number         0  stm32f4xx_crc.o ABSOLUTE
    ..\Lib\STM32F4xx_StdPeriph_Driver\src\stm32f4xx_cryp.c 0x00000000   Number         0  stm32f4xx_cryp.o ABSOLUTE
    ..\Lib\STM32F4xx_StdPeriph_Driver\src\stm32f4xx_cryp_aes.c 0x00000000   Number         0  stm32f4xx_cryp_aes.o ABSOLUTE
    ..\Lib\STM32F4xx_StdPeriph_Driver\src\stm32f4xx_cryp_des.c 0x00000000   Number         0  stm32f4xx_cryp_des.o ABSOLUTE
    ..\Lib\STM32F4xx_StdPeriph_Driver\src\stm32f4xx_cryp_tdes.c 0x00000000   Number         0  stm32f4xx_cryp_tdes.o ABSOLUTE
    ..\Lib\STM32F4xx_StdPeriph_Driver\src\stm32f4xx_dac.c 0x00000000   Number         0  stm32f4xx_dac.o ABSOLUTE
    ..\Lib\STM32F4xx_StdPeriph_Driver\src\stm32f4xx_dbgmcu.c 0x00000000   Number         0  stm32f4xx_dbgmcu.o ABSOLUTE
    ..\Lib\STM32F4xx_StdPeriph_Driver\src\stm32f4xx_dcmi.c 0x00000000   Number         0  stm32f4xx_dcmi.o ABSOLUTE
    ..\Lib\STM32F4xx_StdPeriph_Driver\src\stm32f4xx_dma.c 0x00000000   Number         0  stm32f4xx_dma.o ABSOLUTE
    ..\Lib\STM32F4xx_StdPeriph_Driver\src\stm32f4xx_exti.c 0x00000000   Number         0  stm32f4xx_exti.o ABSOLUTE
    ..\Lib\STM32F4xx_StdPeriph_Driver\src\stm32f4xx_flash.c 0x00000000   Number         0  stm32f4xx_flash.o ABSOLUTE
    ..\Lib\STM32F4xx_StdPeriph_Driver\src\stm32f4xx_fsmc.c 0x00000000   Number         0  stm32f4xx_fsmc.o ABSOLUTE
    ..\Lib\STM32F4xx_StdPeriph_Driver\src\stm32f4xx_gpio.c 0x00000000   Number         0  stm32f4xx_gpio.o ABSOLUTE
    ..\Lib\STM32F4xx_StdPeriph_Driver\src\stm32f4xx_hash.c 0x00000000   Number         0  stm32f4xx_hash.o ABSOLUTE
    ..\Lib\STM32F4xx_StdPeriph_Driver\src\stm32f4xx_hash_md5.c 0x00000000   Number         0  stm32f4xx_hash_md5.o ABSOLUTE
    ..\Lib\STM32F4xx_StdPeriph_Driver\src\stm32f4xx_hash_sha1.c 0x00000000   Number         0  stm32f4xx_hash_sha1.o ABSOLUTE
    ..\Lib\STM32F4xx_StdPeriph_Driver\src\stm32f4xx_i2c.c 0x00000000   Number         0  stm32f4xx_i2c.o ABSOLUTE
    ..\Lib\STM32F4xx_StdPeriph_Driver\src\stm32f4xx_iwdg.c 0x00000000   Number         0  stm32f4xx_iwdg.o ABSOLUTE
    ..\Lib\STM32F4xx_StdPeriph_Driver\src\stm32f4xx_pwr.c 0x00000000   Number         0  stm32f4xx_pwr.o ABSOLUTE
    ..\Lib\STM32F4xx_StdPeriph_Driver\src\stm32f4xx_rcc.c 0x00000000   Number         0  stm32f4xx_rcc.o ABSOLUTE
    ..\Lib\STM32F4xx_StdPeriph_Driver\src\stm32f4xx_rng.c 0x00000000   Number         0  stm32f4xx_rng.o ABSOLUTE
    ..\Lib\STM32F4xx_StdPeriph_Driver\src\stm32f4xx_rtc.c 0x00000000   Number         0  stm32f4xx_rtc.o ABSOLUTE
    ..\Lib\STM32F4xx_StdPeriph_Driver\src\stm32f4xx_sdio.c 0x00000000   Number         0  stm32f4xx_sdio.o ABSOLUTE
    ..\Lib\STM32F4xx_StdPeriph_Driver\src\stm32f4xx_spi.c 0x00000000   Number         0  stm32f4xx_spi.o ABSOLUTE
    ..\Lib\STM32F4xx_StdPeriph_Driver\src\stm32f4xx_syscfg.c 0x00000000   Number         0  stm32f4xx_syscfg.o ABSOLUTE
    ..\Lib\STM32F4xx_StdPeriph_Driver\src\stm32f4xx_tim.c 0x00000000   Number         0  stm32f4xx_tim.o ABSOLUTE
    ..\Lib\STM32F4xx_StdPeriph_Driver\src\stm32f4xx_usart.c 0x00000000   Number         0  stm32f4xx_usart.o ABSOLUTE
    ..\Lib\STM32F4xx_StdPeriph_Driver\src\stm32f4xx_wwdg.c 0x00000000   Number         0  stm32f4xx_wwdg.o ABSOLUTE
    ..\User\main.c                           0x00000000   Number         0  main.o ABSOLUTE
    ..\User\stm32f4xx_it.c                   0x00000000   Number         0  stm32f4xx_it.o ABSOLUTE
    ..\\APP\\AUTOMATIC_AIM\\Auto_aim.c       0x00000000   Number         0  auto_aim.o ABSOLUTE
    ..\\APP\\CATCHCONTROL\\CatchControl.c    0x00000000   Number         0  catchcontrol.o ABSOLUTE
    ..\\APP\\CMCONTROL\\CMControl.c          0x00000000   Number         0  cmcontrol.o ABSOLUTE
    ..\\APP\\GIMBALCONTROL\\GimbalControl.c  0x00000000   Number         0  gimbalcontrol.o ABSOLUTE
    ..\\APP\\MONITOR\\MonitorControl.c       0x00000000   Number         0  monitorcontrol.o ABSOLUTE
    ..\\APP\\PID\\pid.c                      0x00000000   Number         0  pid.o ABSOLUTE
    ..\\APP\\REMOTECONTROL\\RemoteControl.c  0x00000000   Number         0  remotecontrol.o ABSOLUTE
    ..\\APP\\SHOOTCONTROL\\ShootControl.c    0x00000000   Number         0  shootcontrol.o ABSOLUTE
    ..\\ControlTask\\ControlTask.c           0x00000000   Number         0  controltask.o ABSOLUTE
    ..\\HardWare\\ADC\\adc.c                 0x00000000   Number         0  adc.o ABSOLUTE
    ..\\HardWare\\BSP\\bsp.c                 0x00000000   Number         0  bsp.o ABSOLUTE
    ..\\HardWare\\BUZZER\\buzzer.c           0x00000000   Number         0  buzzer.o ABSOLUTE
    ..\\HardWare\\CAN\\can.c                 0x00000000   Number         0  can.o ABSOLUTE
    ..\\HardWare\\CATCHBULLET\\CatchBullet.c 0x00000000   Number         0  catchbullet.o ABSOLUTE
    ..\\HardWare\\CYLINDER\\cylinder.c       0x00000000   Number         0  cylinder.o ABSOLUTE
    ..\\HardWare\\DELAY\\delay.c             0x00000000   Number         0  delay.o ABSOLUTE
    ..\\HardWare\\EULER\\euler.c             0x00000000   Number         0  euler.o ABSOLUTE
    ..\\HardWare\\INFRARED\\infrared.c       0x00000000   Number         0  infrared.o ABSOLUTE
    ..\\HardWare\\LASER\\laser.c             0x00000000   Number         0  laser.o ABSOLUTE
    ..\\HardWare\\LED\\led.c                 0x00000000   Number         0  led.o ABSOLUTE
    ..\\HardWare\\MPU6050\\mpu6050_driver.c  0x00000000   Number         0  mpu6050_driver.o ABSOLUTE
    ..\\HardWare\\MPU6050\\mpu6050_i2c.c     0x00000000   Number         0  mpu6050_i2c.o ABSOLUTE
    ..\\HardWare\\MPU6500\\mpu6500.c         0x00000000   Number         0  mpu6500.o ABSOLUTE
    ..\\HardWare\\PWM\\pwm.c                 0x00000000   Number         0  pwm.o ABSOLUTE
    ..\\HardWare\\RC\\rc.c                   0x00000000   Number         0  rc.o ABSOLUTE
    ..\\HardWare\\SPI\\spi.c                 0x00000000   Number         0  spi.o ABSOLUTE
    ..\\HardWare\\SYS\\sys.c                 0x00000000   Number         0  sys.o ABSOLUTE
    ..\\HardWare\\TIMER\\timer.c             0x00000000   Number         0  timer.o ABSOLUTE
    ..\\HardWare\\UART3\\usart3.c            0x00000000   Number         0  usart3.o ABSOLUTE
    ..\\HardWare\\UART6\\usart6.c            0x00000000   Number         0  usart6.o ABSOLUTE
    ..\\Lib\\CMSIS\\Device\\ST\\STM32F4xx\\Source\\Templates\\system_stm32f4xx.c 0x00000000   Number         0  system_stm32f4xx.o ABSOLUTE
    ..\\Lib\\STM32F4xx_StdPeriph_Driver\\src\\misc.c 0x00000000   Number         0  misc.o ABSOLUTE
    ..\\Lib\\STM32F4xx_StdPeriph_Driver\\src\\stm32f4xx_adc.c 0x00000000   Number         0  stm32f4xx_adc.o ABSOLUTE
    ..\\Lib\\STM32F4xx_StdPeriph_Driver\\src\\stm32f4xx_can.c 0x00000000   Number         0  stm32f4xx_can.o ABSOLUTE
    ..\\Lib\\STM32F4xx_StdPeriph_Driver\\src\\stm32f4xx_crc.c 0x00000000   Number         0  stm32f4xx_crc.o ABSOLUTE
    ..\\Lib\\STM32F4xx_StdPeriph_Driver\\src\\stm32f4xx_cryp.c 0x00000000   Number         0  stm32f4xx_cryp.o ABSOLUTE
    ..\\Lib\\STM32F4xx_StdPeriph_Driver\\src\\stm32f4xx_cryp_aes.c 0x00000000   Number         0  stm32f4xx_cryp_aes.o ABSOLUTE
    ..\\Lib\\STM32F4xx_StdPeriph_Driver\\src\\stm32f4xx_cryp_des.c 0x00000000   Number         0  stm32f4xx_cryp_des.o ABSOLUTE
    ..\\Lib\\STM32F4xx_StdPeriph_Driver\\src\\stm32f4xx_cryp_tdes.c 0x00000000   Number         0  stm32f4xx_cryp_tdes.o ABSOLUTE
    ..\\Lib\\STM32F4xx_StdPeriph_Driver\\src\\stm32f4xx_dac.c 0x00000000   Number         0  stm32f4xx_dac.o ABSOLUTE
    ..\\Lib\\STM32F4xx_StdPeriph_Driver\\src\\stm32f4xx_dbgmcu.c 0x00000000   Number         0  stm32f4xx_dbgmcu.o ABSOLUTE
    ..\\Lib\\STM32F4xx_StdPeriph_Driver\\src\\stm32f4xx_dcmi.c 0x00000000   Number         0  stm32f4xx_dcmi.o ABSOLUTE
    ..\\Lib\\STM32F4xx_StdPeriph_Driver\\src\\stm32f4xx_dma.c 0x00000000   Number         0  stm32f4xx_dma.o ABSOLUTE
    ..\\Lib\\STM32F4xx_StdPeriph_Driver\\src\\stm32f4xx_exti.c 0x00000000   Number         0  stm32f4xx_exti.o ABSOLUTE
    ..\\Lib\\STM32F4xx_StdPeriph_Driver\\src\\stm32f4xx_flash.c 0x00000000   Number         0  stm32f4xx_flash.o ABSOLUTE
    ..\\Lib\\STM32F4xx_StdPeriph_Driver\\src\\stm32f4xx_fsmc.c 0x00000000   Number         0  stm32f4xx_fsmc.o ABSOLUTE
    ..\\Lib\\STM32F4xx_StdPeriph_Driver\\src\\stm32f4xx_gpio.c 0x00000000   Number         0  stm32f4xx_gpio.o ABSOLUTE
    ..\\Lib\\STM32F4xx_StdPeriph_Driver\\src\\stm32f4xx_hash.c 0x00000000   Number         0  stm32f4xx_hash.o ABSOLUTE
    ..\\Lib\\STM32F4xx_StdPeriph_Driver\\src\\stm32f4xx_hash_md5.c 0x00000000   Number         0  stm32f4xx_hash_md5.o ABSOLUTE
    ..\\Lib\\STM32F4xx_StdPeriph_Driver\\src\\stm32f4xx_hash_sha1.c 0x00000000   Number         0  stm32f4xx_hash_sha1.o ABSOLUTE
    ..\\Lib\\STM32F4xx_StdPeriph_Driver\\src\\stm32f4xx_i2c.c 0x00000000   Number         0  stm32f4xx_i2c.o ABSOLUTE
    ..\\Lib\\STM32F4xx_StdPeriph_Driver\\src\\stm32f4xx_iwdg.c 0x00000000   Number         0  stm32f4xx_iwdg.o ABSOLUTE
    ..\\Lib\\STM32F4xx_StdPeriph_Driver\\src\\stm32f4xx_pwr.c 0x00000000   Number         0  stm32f4xx_pwr.o ABSOLUTE
    ..\\Lib\\STM32F4xx_StdPeriph_Driver\\src\\stm32f4xx_rcc.c 0x00000000   Number         0  stm32f4xx_rcc.o ABSOLUTE
    ..\\Lib\\STM32F4xx_StdPeriph_Driver\\src\\stm32f4xx_rng.c 0x00000000   Number         0  stm32f4xx_rng.o ABSOLUTE
    ..\\Lib\\STM32F4xx_StdPeriph_Driver\\src\\stm32f4xx_rtc.c 0x00000000   Number         0  stm32f4xx_rtc.o ABSOLUTE
    ..\\Lib\\STM32F4xx_StdPeriph_Driver\\src\\stm32f4xx_sdio.c 0x00000000   Number         0  stm32f4xx_sdio.o ABSOLUTE
    ..\\Lib\\STM32F4xx_StdPeriph_Driver\\src\\stm32f4xx_spi.c 0x00000000   Number         0  stm32f4xx_spi.o ABSOLUTE
    ..\\Lib\\STM32F4xx_StdPeriph_Driver\\src\\stm32f4xx_syscfg.c 0x00000000   Number         0  stm32f4xx_syscfg.o ABSOLUTE
    ..\\Lib\\STM32F4xx_StdPeriph_Driver\\src\\stm32f4xx_tim.c 0x00000000   Number         0  stm32f4xx_tim.o ABSOLUTE
    ..\\Lib\\STM32F4xx_StdPeriph_Driver\\src\\stm32f4xx_usart.c 0x00000000   Number         0  stm32f4xx_usart.o ABSOLUTE
    ..\\Lib\\STM32F4xx_StdPeriph_Driver\\src\\stm32f4xx_wwdg.c 0x00000000   Number         0  stm32f4xx_wwdg.o ABSOLUTE
    ..\\User\\main.c                         0x00000000   Number         0  main.o ABSOLUTE
    ..\\User\\stm32f4xx_it.c                 0x00000000   Number         0  stm32f4xx_it.o ABSOLUTE
    cdcmple.s                                0x00000000   Number         0  cdcmple.o ABSOLUTE
    cdrcmple.s                               0x00000000   Number         0  cdrcmple.o ABSOLUTE
    dc.s                                     0x00000000   Number         0  dc.o ABSOLUTE
    handlers.s                               0x00000000   Number         0  handlers.o ABSOLUTE
    init.s                                   0x00000000   Number         0  init.o ABSOLUTE
    RESET                                    0x08000000   Section      392  startup_stm32f4xx.o(RESET)
    .ARM.Collect$$$$00000000                 0x08000188   Section        0  entry.o(.ARM.Collect$$$$00000000)
    .ARM.Collect$$$$00000001                 0x08000188   Section        4  entry2.o(.ARM.Collect$$$$00000001)
    .ARM.Collect$$$$00000004                 0x0800018c   Section        4  entry5.o(.ARM.Collect$$$$00000004)
    .ARM.Collect$$$$00000008                 0x08000190   Section        0  entry7b.o(.ARM.Collect$$$$00000008)
    .ARM.Collect$$$$0000000A                 0x08000190   Section        0  entry8b.o(.ARM.Collect$$$$0000000A)
    .ARM.Collect$$$$0000000B                 0x08000190   Section        8  entry9a.o(.ARM.Collect$$$$0000000B)
    .ARM.Collect$$$$0000000D                 0x08000198   Section        0  entry10a.o(.ARM.Collect$$$$0000000D)
    .ARM.Collect$$$$0000000F                 0x08000198   Section        0  entry11a.o(.ARM.Collect$$$$0000000F)
    .ARM.Collect$$$$00002712                 0x08000198   Section        4  entry2.o(.ARM.Collect$$$$00002712)
    __lit__00000000                          0x08000198   Data           4  entry2.o(.ARM.Collect$$$$00002712)
    .text                                    0x0800019c   Section       36  startup_stm32f4xx.o(.text)
    $v0                                      0x0800019c   Number         0  startup_stm32f4xx.o(.text)
    .text                                    0x080001c0   Section        0  dadd.o(.text)
    .text                                    0x0800030e   Section        0  dmul.o(.text)
    .text                                    0x080003f2   Section        0  ddiv.o(.text)
    .text                                    0x080004d0   Section        0  dflti.o(.text)
    .text                                    0x080004f2   Section        0  dfltui.o(.text)
    .text                                    0x0800050c   Section        0  f2d.o(.text)
    .text                                    0x08000534   Section       48  cdrcmple.o(.text)
    .text                                    0x08000564   Section        0  d2f.o(.text)
    .text                                    0x0800059c   Section        0  llshl.o(.text)
    .text                                    0x080005ba   Section        0  llsshr.o(.text)
    .text                                    0x080005de   Section        0  fepilogue.o(.text)
    .text                                    0x080005de   Section        0  iusefp.o(.text)
    .text                                    0x0800064c   Section        0  depilogue.o(.text)
    .text                                    0x08000706   Section        0  dsqrt.o(.text)
    .text                                    0x080007a8   Section       36  init.o(.text)
    .text                                    0x080007cc   Section        0  llushr.o(.text)
    .text                                    0x080007ec   Section        0  dfixi.o(.text)
    .text                                    0x0800082a   Section        0  __dczerorl2.o(.text)
    i.ADC_Cmd                                0x08000880   Section        0  stm32f4xx_adc.o(i.ADC_Cmd)
    i.ADC_CommonInit                         0x08000898   Section        0  stm32f4xx_adc.o(i.ADC_CommonInit)
    i.ADC_GetConversionValue                 0x080008c8   Section        0  stm32f4xx_adc.o(i.ADC_GetConversionValue)
    i.ADC_GetFlagStatus                      0x080008d0   Section        0  stm32f4xx_adc.o(i.ADC_GetFlagStatus)
    i.ADC_Init                               0x080008e4   Section        0  stm32f4xx_adc.o(i.ADC_Init)
    i.ADC_RegularChannelConfig               0x08000938   Section        0  stm32f4xx_adc.o(i.ADC_RegularChannelConfig)
    i.ADC_SoftwareStartConv                  0x080009f0   Section        0  stm32f4xx_adc.o(i.ADC_SoftwareStartConv)
    i.Adc_Init                               0x080009fc   Section        0  adc.o(i.Adc_Init)
    i.AutoCatch_CatchBullet                  0x08000a80   Section        0  catchbullet.o(i.AutoCatch_CatchBullet)
    i.AutoCatch_TaskControl                  0x08000b90   Section        0  catchcontrol.o(i.AutoCatch_TaskControl)
    i.AutoCatch_TaskJudge                    0x08000d30   Section        0  catchcontrol.o(i.AutoCatch_TaskJudge)
    i.AutoCatch_tInit                        0x08000dd8   Section        0  catchcontrol.o(i.AutoCatch_tInit)
    i.BSP_Init                               0x08000e6c   Section        0  bsp.o(i.BSP_Init)
    i.Bullet_Load_Judge                      0x08000ee4   Section        0  shootcontrol.o(i.Bullet_Load_Judge)
    i.BusFault_Handler                       0x08000f04   Section        0  stm32f4xx_it.o(i.BusFault_Handler)
    i.Buzzer_Init                            0x08000f08   Section        0  buzzer.o(i.Buzzer_Init)
    i.CAN1_Cmd_All                           0x08000fb8   Section        0  can.o(i.CAN1_Cmd_All)
    i.CAN1_Mode_Init                         0x08001010   Section        0  can.o(i.CAN1_Mode_Init)
    i.CAN1_RX0_IRQHandler                    0x08001110   Section        0  can.o(i.CAN1_RX0_IRQHandler)
    i.CAN1_Send_Bottom                       0x08001220   Section        0  can.o(i.CAN1_Send_Bottom)
    i.CAN2_Cmd_SHOOT                         0x08001284   Section        0  can.o(i.CAN2_Cmd_SHOOT)
    i.CAN2_Mode_Init                         0x08001320   Section        0  can.o(i.CAN2_Mode_Init)
    i.CAN2_RX1_IRQHandler                    0x08001428   Section        0  can.o(i.CAN2_RX1_IRQHandler)
    i.CAN2_Send_Bottom                       0x08001808   Section        0  can.o(i.CAN2_Send_Bottom)
    i.CAN_ClearITPendingBit                  0x08001864   Section        0  stm32f4xx_can.o(i.CAN_ClearITPendingBit)
    i.CAN_FilterInit                         0x0800190c   Section        0  stm32f4xx_can.o(i.CAN_FilterInit)
    i.CAN_GetITStatus                        0x08001a14   Section        0  stm32f4xx_can.o(i.CAN_GetITStatus)
    i.CAN_ITConfig                           0x08001b34   Section        0  stm32f4xx_can.o(i.CAN_ITConfig)
    i.CAN_Init                               0x08001b46   Section        0  stm32f4xx_can.o(i.CAN_Init)
    i.CAN_Receive                            0x08001c5a   Section        0  stm32f4xx_can.o(i.CAN_Receive)
    i.CAN_Transmit                           0x08001d4a   Section        0  stm32f4xx_can.o(i.CAN_Transmit)
    i.CMControlInit                          0x08001e70   Section        0  cmcontrol.o(i.CMControlInit)
    i.CMControlLoop                          0x08001e84   Section        0  cmcontrol.o(i.CMControlLoop)
    i.CMControlOut                           0x08001f30   Section        0  cmcontrol.o(i.CMControlOut)
    i.CMPID_Init                             0x080020c0   Section        0  cmcontrol.o(i.CMPID_Init)
    i.CMSpeedLegalize                        0x08002138   Section        0  cmcontrol.o(i.CMSpeedLegalize)
    i.CMStop                                 0x08002166   Section        0  cmcontrol.o(i.CMStop)
    i.CMWatt_Cal                             0x08002178   Section        0  monitorcontrol.o(i.CMWatt_Cal)
    i.CatchControl                           0x0800223c   Section        0  catchcontrol.o(i.CatchControl)
    i.CatchInit                              0x0800239c   Section        0  catchcontrol.o(i.CatchInit)
    i.CheckITStatus                          0x080023b6   Section        0  stm32f4xx_can.o(i.CheckITStatus)
    CheckITStatus                            0x080023b7   Thumb Code    18  stm32f4xx_can.o(i.CheckITStatus)
    i.Control_Task                           0x080023c8   Section        0  controltask.o(i.Control_Task)
    i.Cylinder_Configuration                 0x080024c8   Section        0  cylinder.o(i.Cylinder_Configuration)
    i.DMA1_Stream1_IRQHandler                0x08002504   Section        0  usart3.o(i.DMA1_Stream1_IRQHandler)
    i.DMA2_Stream2_IRQHandler                0x0800252c   Section        0  rc.o(i.DMA2_Stream2_IRQHandler)
    i.DMA_ClearFlag                          0x0800265c   Section        0  stm32f4xx_dma.o(i.DMA_ClearFlag)
    i.DMA_ClearITPendingBit                  0x08002690   Section        0  stm32f4xx_dma.o(i.DMA_ClearITPendingBit)
    i.DMA_Cmd                                0x080026c4   Section        0  stm32f4xx_dma.o(i.DMA_Cmd)
    i.DMA_DeInit                             0x080026dc   Section        0  stm32f4xx_dma.o(i.DMA_DeInit)
    i.DMA_GetITStatus                        0x08002834   Section        0  stm32f4xx_dma.o(i.DMA_GetITStatus)
    i.DMA_ITConfig                           0x08002898   Section        0  stm32f4xx_dma.o(i.DMA_ITConfig)
    i.DMA_Init                               0x080028d4   Section        0  stm32f4xx_dma.o(i.DMA_Init)
    i.DebugMon_Handler                       0x0800292c   Section        0  stm32f4xx_it.o(i.DebugMon_Handler)
    i.Empty_Detection                        0x08002930   Section        0  shootcontrol.o(i.Empty_Detection)
    i.FrictionControl                        0x080029bc   Section        0  shootcontrol.o(i.FrictionControl)
    i.FrictionJudge                          0x08002a24   Section        0  shootcontrol.o(i.FrictionJudge)
    i.GPIO_Init                              0x08002ad4   Section        0  stm32f4xx_gpio.o(i.GPIO_Init)
    i.GPIO_PinAFConfig                       0x08002b64   Section        0  stm32f4xx_gpio.o(i.GPIO_PinAFConfig)
    i.GPIO_ReadInputDataBit                  0x08002baa   Section        0  stm32f4xx_gpio.o(i.GPIO_ReadInputDataBit)
    i.GPIO_ResetBits                         0x08002bbc   Section        0  stm32f4xx_gpio.o(i.GPIO_ResetBits)
    i.GPIO_SetBits                           0x08002bc0   Section        0  stm32f4xx_gpio.o(i.GPIO_SetBits)
    i.Get_Adc                                0x08002bc4   Section        0  adc.o(i.Get_Adc)
    i.GimbalControlInit                      0x08002bf4   Section        0  gimbalcontrol.o(i.GimbalControlInit)
    i.GimbalControlLoop                      0x08002c2c   Section        0  gimbalcontrol.o(i.GimbalControlLoop)
    i.GimbalControlValSet                    0x08002ca4   Section        0  gimbalcontrol.o(i.GimbalControlValSet)
    i.GimbalControl_Pitch                    0x08002fe0   Section        0  gimbalcontrol.o(i.GimbalControl_Pitch)
    i.GimbalControl_PitchAngel               0x0800308c   Section        0  gimbalcontrol.o(i.GimbalControl_PitchAngel)
    i.GimbalControl_Yaw                      0x08003154   Section        0  gimbalcontrol.o(i.GimbalControl_Yaw)
    i.GimbalControl_YawAngel                 0x08003210   Section        0  gimbalcontrol.o(i.GimbalControl_YawAngel)
    i.GimbalMove                             0x080032dc   Section        0  gimbalcontrol.o(i.GimbalMove)
    i.GimbalPidInit                          0x08003388   Section        0  gimbalcontrol.o(i.GimbalPidInit)
    i.GimbalPidInitPrepare                   0x08003450   Section        0  gimbalcontrol.o(i.GimbalPidInitPrepare)
    i.GimbalStop                             0x0800351c   Section        0  gimbalcontrol.o(i.GimbalStop)
    i.GimbalSwitchJudge                      0x0800357c   Section        0  remotecontrol.o(i.GimbalSwitchJudge)
    i.GimbalValLigal                         0x080035b8   Section        0  gimbalcontrol.o(i.GimbalValLigal)
    i.GunControl                             0x080035d8   Section        0  shootcontrol.o(i.GunControl)
    i.GunShootAction                         0x080035f8   Section        0  shootcontrol.o(i.GunShootAction)
    i.HardFault_Handler                      0x08003708   Section        0  stm32f4xx_it.o(i.HardFault_Handler)
    i.Infrared_Configuration                 0x0800370c   Section        0  infrared.o(i.Infrared_Configuration)
    i.ItoE                                   0x0800374c   Section        0  rc.o(i.ItoE)
    i.Laser_Configuration                    0x08003828   Section        0  laser.o(i.Laser_Configuration)
    i.Led_Configuration                      0x08003868   Section        0  led.o(i.Led_Configuration)
    i.LiftPosSpeedcal                        0x080038c0   Section        0  catchbullet.o(i.LiftPosSpeedcal)
    i.Lift_Legalize                          0x080039e4   Section        0  catchbullet.o(i.Lift_Legalize)
    i.MPU6500ReadSPI                         0x08003a14   Section        0  mpu6500.o(i.MPU6500ReadSPI)
    i.MPU6500ReadSPISingle                   0x08003a50   Section        0  mpu6500.o(i.MPU6500ReadSPISingle)
    i.MPU6500WriteSPI                        0x08003a80   Section        0  mpu6500.o(i.MPU6500WriteSPI)
    i.MPU6500_Init                           0x08003ab0   Section        0  mpu6500.o(i.MPU6500_Init)
    i.MPU6500_Read                           0x08003b4c   Section        0  mpu6500.o(i.MPU6500_Read)
    i.MemManage_Handler                      0x08003cf4   Section        0  stm32f4xx_it.o(i.MemManage_Handler)
    i.MotorCurrentLegalize                   0x08003cf8   Section        0  gimbalcontrol.o(i.MotorCurrentLegalize)
    i.MotorPositionLegalize                  0x08003d26   Section        0  gimbalcontrol.o(i.MotorPositionLegalize)
    i.NMI_Handler                            0x08003d54   Section        0  stm32f4xx_it.o(i.NMI_Handler)
    i.NVIC_Init                              0x08003d58   Section        0  misc.o(i.NVIC_Init)
    i.PID_BitIsSet                           0x08003dd0   Section        0  pid.o(i.PID_BitIsSet)
    i.PID_Calc                               0x08003de4   Section        0  pid.o(i.PID_Calc)
    i.PID_Driver                             0x08003f5c   Section        0  pid.o(i.PID_Driver)
    i.PID_Init                               0x08003f88   Section        0  pid.o(i.PID_Init)
    i.PID_PreCalc                            0x08003fac   Section        0  pid.o(i.PID_PreCalc)
    i.PendSV_Handler                         0x08004054   Section        0  stm32f4xx_it.o(i.PendSV_Handler)
    i.PlateMotorCurrentLegalize              0x08004056   Section        0  shootcontrol.o(i.PlateMotorCurrentLegalize)
    i.PlatePID                               0x08004084   Section        0  shootcontrol.o(i.PlatePID)
    i.PlatePidInit                           0x0800412c   Section        0  shootcontrol.o(i.PlatePidInit)
    i.PowerMonitor                           0x08004198   Section        0  monitorcontrol.o(i.PowerMonitor)
    i.RCC_AHB1PeriphClockCmd                 0x08004280   Section        0  stm32f4xx_rcc.o(i.RCC_AHB1PeriphClockCmd)
    i.RCC_APB1PeriphClockCmd                 0x080042a0   Section        0  stm32f4xx_rcc.o(i.RCC_APB1PeriphClockCmd)
    i.RCC_APB1PeriphResetCmd                 0x080042c0   Section        0  stm32f4xx_rcc.o(i.RCC_APB1PeriphResetCmd)
    i.RCC_APB2PeriphClockCmd                 0x080042e0   Section        0  stm32f4xx_rcc.o(i.RCC_APB2PeriphClockCmd)
    i.RCC_APB2PeriphResetCmd                 0x08004300   Section        0  stm32f4xx_rcc.o(i.RCC_APB2PeriphResetCmd)
    i.RCC_GetClocksFreq                      0x08004320   Section        0  stm32f4xx_rcc.o(i.RCC_GetClocksFreq)
    i.RC_Init                                0x08004408   Section        0  rc.o(i.RC_Init)
    i.RcReceiveMonitor                       0x08004528   Section        0  monitorcontrol.o(i.RcReceiveMonitor)
    i.Read_Infrared_State                    0x0800457c   Section        0  shootcontrol.o(i.Read_Infrared_State)
    i.RemoteControlInit                      0x080045a8   Section        0  remotecontrol.o(i.RemoteControlInit)
    i.RemoteControlLoop                      0x080045bc   Section        0  remotecontrol.o(i.RemoteControlLoop)
    i.RemoteStateFSM                         0x080045cc   Section        0  remotecontrol.o(i.RemoteStateFSM)
    i.RotateSpeedcal                         0x08004620   Section        0  catchbullet.o(i.RotateSpeedcal)
    i.SPI5Init                               0x080046a4   Section        0  spi.o(i.SPI5Init)
    i.SPI5ReadWriteByte                      0x08004790   Section        0  spi.o(i.SPI5ReadWriteByte)
    i.SVC_Handler                            0x080047e0   Section        0  stm32f4xx_it.o(i.SVC_Handler)
    i.SetPIDCR                               0x080047e2   Section        0  pid.o(i.SetPIDCR)
    i.SetSysClock                            0x080047f4   Section        0  system_stm32f4xx.o(i.SetSysClock)
    SetSysClock                              0x080047f5   Thumb Code   220  system_stm32f4xx.o(i.SetSysClock)
    i.Set_Target                             0x080048e0   Section        0  shootcontrol.o(i.Set_Target)
    i.ShootControlInit                       0x08004918   Section        0  shootcontrol.o(i.ShootControlInit)
    i.ShootControlLoop                       0x08004940   Section        0  shootcontrol.o(i.ShootControlLoop)
    i.ShootStop                              0x08004a34   Section        0  shootcontrol.o(i.ShootStop)
    i.SysTick_CLKSourceConfig                0x08004a60   Section        0  misc.o(i.SysTick_CLKSourceConfig)
    i.SysTick_Handler                        0x08004a88   Section        0  stm32f4xx_it.o(i.SysTick_Handler)
    i.SystemInit                             0x08004a8c   Section        0  system_stm32f4xx.o(i.SystemInit)
    i.TIM12_Init                             0x08004af4   Section        0  timer.o(i.TIM12_Init)
    i.TIM2_IRQHandler                        0x08004bcc   Section        0  timer.o(i.TIM2_IRQHandler)
    i.TIM2_Init                              0x08004bec   Section        0  timer.o(i.TIM2_Init)
    i.TIM5_IRQHandler                        0x08004c48   Section        0  timer.o(i.TIM5_IRQHandler)
    i.TIM5_Init                              0x08004c9c   Section        0  timer.o(i.TIM5_Init)
    i.TIM8_PWM_Init                          0x08004cf8   Section        0  pwm.o(i.TIM8_PWM_Init)
    i.TIM_ARRPreloadConfig                   0x08004dec   Section        0  stm32f4xx_tim.o(i.TIM_ARRPreloadConfig)
    i.TIM_ClearITPendingBit                  0x08004e04   Section        0  stm32f4xx_tim.o(i.TIM_ClearITPendingBit)
    i.TIM_Cmd                                0x08004e0a   Section        0  stm32f4xx_tim.o(i.TIM_Cmd)
    i.TIM_CtrlPWMOutputs                     0x08004e22   Section        0  stm32f4xx_tim.o(i.TIM_CtrlPWMOutputs)
    i.TIM_GetITStatus                        0x08004e40   Section        0  stm32f4xx_tim.o(i.TIM_GetITStatus)
    i.TIM_ITConfig                           0x08004e62   Section        0  stm32f4xx_tim.o(i.TIM_ITConfig)
    i.TIM_OC1Init                            0x08004e74   Section        0  stm32f4xx_tim.o(i.TIM_OC1Init)
    i.TIM_OC1PreloadConfig                   0x08004ef0   Section        0  stm32f4xx_tim.o(i.TIM_OC1PreloadConfig)
    i.TIM_OC2Init                            0x08004f04   Section        0  stm32f4xx_tim.o(i.TIM_OC2Init)
    i.TIM_OC2PreloadConfig                   0x08004fa8   Section        0  stm32f4xx_tim.o(i.TIM_OC2PreloadConfig)
    i.TIM_SetCompare1                        0x08004fc2   Section        0  stm32f4xx_tim.o(i.TIM_SetCompare1)
    i.TIM_SetCompare2                        0x08004fc6   Section        0  stm32f4xx_tim.o(i.TIM_SetCompare2)
    i.TIM_TimeBaseInit                       0x08004fcc   Section        0  stm32f4xx_tim.o(i.TIM_TimeBaseInit)
    i.USART3_DMA_Init                        0x08005050   Section        0  usart3.o(i.USART3_DMA_Init)
    i.USART6_Configuration                   0x08005174   Section        0  usart6.o(i.USART6_Configuration)
    i.USART6_IRQHandler                      0x08005228   Section        0  usart6.o(i.USART6_IRQHandler)
    i.USART_ClearFlag                        0x080052c8   Section        0  stm32f4xx_usart.o(i.USART_ClearFlag)
    i.USART_Cmd                              0x080052da   Section        0  stm32f4xx_usart.o(i.USART_Cmd)
    i.USART_DMACmd                           0x080052f2   Section        0  stm32f4xx_usart.o(i.USART_DMACmd)
    i.USART_DeInit                           0x08005304   Section        0  stm32f4xx_usart.o(i.USART_DeInit)
    i.USART_GetITStatus                      0x080053b8   Section        0  stm32f4xx_usart.o(i.USART_GetITStatus)
    i.USART_ITConfig                         0x0800540c   Section        0  stm32f4xx_usart.o(i.USART_ITConfig)
    i.USART_Init                             0x08005458   Section        0  stm32f4xx_usart.o(i.USART_Init)
    i.USART_ReceiveData                      0x0800552c   Section        0  stm32f4xx_usart.o(i.USART_ReceiveData)
    i.UsageFault_Handler                     0x08005536   Section        0  stm32f4xx_it.o(i.UsageFault_Handler)
    i.WholeInitTask                          0x0800553c   Section        0  controltask.o(i.WholeInitTask)
    i.__ARM_fpclassify                       0x08005580   Section        0  fpclassify.o(i.__ARM_fpclassify)
    i.__hardfp_asin                          0x080055b0   Section        0  asin.o(i.__hardfp_asin)
    i.__hardfp_atan                          0x08005910   Section        0  atan.o(i.__hardfp_atan)
    i.__hardfp_atan2                         0x08005be8   Section        0  atan2.o(i.__hardfp_atan2)
    i.__hardfp_cos                           0x08005dd8   Section        0  cos.o(i.__hardfp_cos)
    i.__hardfp_fabs                          0x08005ea0   Section        0  fabs.o(i.__hardfp_fabs)
    i.__hardfp_sin                           0x08005eb8   Section        0  sin.o(i.__hardfp_sin)
    i.__hardfp_sqrt                          0x08005f80   Section        0  sqrt.o(i.__hardfp_sqrt)
    i.__ieee754_rem_pio2                     0x08006000   Section        0  rred.o(i.__ieee754_rem_pio2)
    i.__kernel_cos                           0x08006438   Section        0  cos_i.o(i.__kernel_cos)
    i.__kernel_poly                          0x080065a8   Section        0  poly.o(i.__kernel_poly)
    i.__kernel_sin                           0x080066a0   Section        0  sin_i.o(i.__kernel_sin)
    i.__mathlib_dbl_infnan                   0x080067d0   Section        0  dunder.o(i.__mathlib_dbl_infnan)
    i.__mathlib_dbl_infnan2                  0x080067e4   Section        0  dunder.o(i.__mathlib_dbl_infnan2)
    i.__mathlib_dbl_invalid                  0x080067f8   Section        0  dunder.o(i.__mathlib_dbl_invalid)
    i.__mathlib_dbl_underflow                0x08006818   Section        0  dunder.o(i.__mathlib_dbl_underflow)
    i.__scatterload_copy                     0x08006838   Section       14  handlers.o(i.__scatterload_copy)
    i.__scatterload_null                     0x08006846   Section        2  handlers.o(i.__scatterload_null)
    i.__scatterload_zeroinit                 0x08006848   Section       14  handlers.o(i.__scatterload_zeroinit)
    i.__set_errno                            0x08006858   Section        0  errno.o(i.__set_errno)
    i.atan                                   0x08006864   Section        0  atan.o(i.atan)
    i.blocking_judge                         0x08006874   Section        0  shootcontrol.o(i.blocking_judge)
    i.catchfinish                            0x0800692c   Section        0  catchbullet.o(i.catchfinish)
    i.catchinit                              0x08006940   Section        0  catchbullet.o(i.catchinit)
    i.catchstart                             0x080069e4   Section        0  catchbullet.o(i.catchstart)
    i.delay_init                             0x080069f8   Section        0  delay.o(i.delay_init)
    i.delay_ms                               0x08006a34   Section        0  delay.o(i.delay_ms)
    i.delay_xms                              0x08006a6c   Section        0  delay.o(i.delay_xms)
    i.fabs                                   0x08006ab8   Section        0  fabs.o(i.fabs)
    i.flift                                  0x08006ad0   Section        0  catchbullet.o(i.flift)
    i.fliftdown                              0x08006b14   Section        0  catchbullet.o(i.fliftdown)
    i.followValCal                           0x08006b7c   Section        0  cmcontrol.o(i.followValCal)
    i.getDeviceID                            0x08006bf4   Section        0  mpu6500.o(i.getDeviceID)
    i.gyro_offset                            0x08006c0c   Section        0  mpu6500.o(i.gyro_offset)
    i.init_euler                             0x08006d4c   Section        0  euler.o(i.init_euler)
    i.invSqrt                                0x08006e9c   Section        0  euler.o(i.invSqrt)
    i.keyboardmove_old                       0x08006ed8   Section        0  cmcontrol.o(i.keyboardmove_old)
    i.liftinit                               0x08007394   Section        0  catchbullet.o(i.liftinit)
    i.main                                   0x08007464   Section        0  main.o(i.main)
    i.monitorControlLoop                     0x0800746c   Section        0  monitorcontrol.o(i.monitorControlLoop)
    i.move                                   0x08007478   Section        0  cmcontrol.o(i.move)
    i.movebackward                           0x080075d8   Section        0  catchbullet.o(i.movebackward)
    i.moveforward                            0x080075ec   Section        0  catchbullet.o(i.moveforward)
    i.moveinit                               0x08007600   Section        0  catchbullet.o(i.moveinit)
    i.myabs                                  0x08007640   Section        0  mpu6500.o(i.myabs)
    i.sqrt                                   0x08007650   Section        0  sqrt.o(i.sqrt)
    i.update_euler                           0x080076c0   Section        0  euler.o(i.update_euler)
    .constdata                               0x08007a30   Section       80  asin.o(.constdata)
    pS                                       0x08007a30   Data          48  asin.o(.constdata)
    qS                                       0x08007a60   Data          32  asin.o(.constdata)
    .constdata                               0x08007a80   Section      152  atan.o(.constdata)
    atanhi                                   0x08007a80   Data          32  atan.o(.constdata)
    atanlo                                   0x08007aa0   Data          32  atan.o(.constdata)
    aTodd                                    0x08007ac0   Data          40  atan.o(.constdata)
    aTeven                                   0x08007ae8   Data          48  atan.o(.constdata)
    .constdata                               0x08007b18   Section       48  cos_i.o(.constdata)
    C                                        0x08007b18   Data          48  cos_i.o(.constdata)
    .constdata                               0x08007b48   Section        8  qnan.o(.constdata)
    .constdata                               0x08007b50   Section      200  rred.o(.constdata)
    pio2s                                    0x08007b50   Data          48  rred.o(.constdata)
    twooverpi                                0x08007b80   Data         152  rred.o(.constdata)
    .constdata                               0x08007c18   Section       40  sin_i.o(.constdata)
    S                                        0x08007c18   Data          40  sin_i.o(.constdata)
    .data                                    0x20000000   Section        2  remotecontrol.o(.data)
    .data                                    0x20000004   Section       54  cmcontrol.o(.data)
    .data                                    0x2000003c   Section       37  gimbalcontrol.o(.data)
    .data                                    0x20000064   Section      156  shootcontrol.o(.data)
    t1_5ms                                   0x2000006c   Data           4  shootcontrol.o(.data)
    t3_5ms                                   0x20000070   Data           4  shootcontrol.o(.data)
    t2_5ms                                   0x20000074   Data           4  shootcontrol.o(.data)
    gun_count                                0x20000078   Data           4  shootcontrol.o(.data)
    .data                                    0x20000100   Section        6  monitorcontrol.o(.data)
    .data                                    0x20000108   Section       86  catchcontrol.o(.data)
    .data                                    0x20000160   Section        8  controltask.o(.data)
    .data                                    0x20000168   Section        4  delay.o(.data)
    fac_us                                   0x20000168   Data           1  delay.o(.data)
    fac_ms                                   0x2000016a   Data           2  delay.o(.data)
    .data                                    0x2000016c   Section        3  timer.o(.data)
    .data                                    0x20000170   Section       16  mpu6500.o(.data)
    num                                      0x2000017c   Data           4  mpu6500.o(.data)
    .data                                    0x20000180   Section       10  usart6.o(.data)
    .data                                    0x2000018a   Section        7  rc.o(.data)
    .data                                    0x20000194   Section       60  can.o(.data)
    .data                                    0x200001d0   Section       52  euler.o(.data)
    .data                                    0x20000204   Section       37  catchbullet.o(.data)
    count1                                   0x20000204   Data           4  catchbullet.o(.data)
    .data                                    0x20000229   Section       16  stm32f4xx_rcc.o(.data)
    APBAHBPrescTable                         0x20000229   Data          16  stm32f4xx_rcc.o(.data)
    .data                                    0x2000023c   Section        4  errno.o(.data)
    _errno                                   0x2000023c   Data           4  errno.o(.data)
    .bss                                     0x20000240   Section      112  cmcontrol.o(.bss)
    .bss                                     0x200002b0   Section      240  gimbalcontrol.o(.bss)
    .bss                                     0x200003a0   Section      112  shootcontrol.o(.bss)
    .bss                                     0x20000410   Section       44  mpu6500.o(.bss)
    .bss                                     0x2000043c   Section      200  usart6.o(.bss)
    .bss                                     0x20000504   Section       62  rc.o(.bss)
    .bss                                     0x20000544   Section       40  can.o(.bss)
    .bss                                     0x2000056c   Section      100  usart3.o(.bss)
    .bss                                     0x200005d0   Section      336  catchbullet.o(.bss)
    STACK                                    0x20000720   Section     1024  startup_stm32f4xx.o(STACK)

    Global Symbols

    Symbol Name                              Value     Ov Type        Size  Object(Section)

    BuildAttributes$$THM_ISAv4$E$P$D$K$B$S$7EM$VFPi3$EXTD16$VFPS$VFMA$PE$A:L22UL41UL21$X:L11$S22US41US21$IEEE1$IW$USESV6$~STKCKD$USESV7$~SHL$OTIME$ROPI$IEEEX$EBA8$MICROLIB$REQ8$PRES8$EABIv2 0x00000000   Number         0  anon$$obj.o ABSOLUTE
    __ARM_use_no_argv                        0x00000000   Number         0  main.o ABSOLUTE
    __use_no_errno                           0x00000000   Number         0  useno.o ABSOLUTE
    __use_no_exception_handling              0x00000000   Number         0  useno.o ABSOLUTE
    __use_no_fp                              0x00000000   Number         0  useno.o ABSOLUTE
    __use_no_heap                            0x00000000   Number         0  useno.o ABSOLUTE
    __use_no_heap_region                     0x00000000   Number         0  useno.o ABSOLUTE
    __use_no_semihosting                     0x00000000   Number         0  useno.o ABSOLUTE
    __use_no_semihosting_swi                 0x00000000   Number         0  useno.o ABSOLUTE
    __use_no_signal_handling                 0x00000000   Number         0  useno.o ABSOLUTE
    _printf_a                                0x00000000   Number         0  stubs.o ABSOLUTE
    _printf_c                                0x00000000   Number         0  stubs.o ABSOLUTE
    _printf_charcount                        0x00000000   Number         0  stubs.o ABSOLUTE
    _printf_d                                0x00000000   Number         0  stubs.o ABSOLUTE
    _printf_e                                0x00000000   Number         0  stubs.o ABSOLUTE
    _printf_f                                0x00000000   Number         0  stubs.o ABSOLUTE
    _printf_flags                            0x00000000   Number         0  stubs.o ABSOLUTE
    _printf_fp_dec                           0x00000000   Number         0  stubs.o ABSOLUTE
    _printf_fp_hex                           0x00000000   Number         0  stubs.o ABSOLUTE
    _printf_g                                0x00000000   Number         0  stubs.o ABSOLUTE
    _printf_i                                0x00000000   Number         0  stubs.o ABSOLUTE
    _printf_int_dec                          0x00000000   Number         0  stubs.o ABSOLUTE
    _printf_l                                0x00000000   Number         0  stubs.o ABSOLUTE
    _printf_lc                               0x00000000   Number         0  stubs.o ABSOLUTE
    _printf_ll                               0x00000000   Number         0  stubs.o ABSOLUTE
    _printf_lld                              0x00000000   Number         0  stubs.o ABSOLUTE
    _printf_lli                              0x00000000   Number         0  stubs.o ABSOLUTE
    _printf_llo                              0x00000000   Number         0  stubs.o ABSOLUTE
    _printf_llu                              0x00000000   Number         0  stubs.o ABSOLUTE
    _printf_llx                              0x00000000   Number         0  stubs.o ABSOLUTE
    _printf_longlong_dec                     0x00000000   Number         0  stubs.o ABSOLUTE
    _printf_longlong_hex                     0x00000000   Number         0  stubs.o ABSOLUTE
    _printf_longlong_oct                     0x00000000   Number         0  stubs.o ABSOLUTE
    _printf_ls                               0x00000000   Number         0  stubs.o ABSOLUTE
    _printf_mbtowc                           0x00000000   Number         0  stubs.o ABSOLUTE
    _printf_n                                0x00000000   Number         0  stubs.o ABSOLUTE
    _printf_o                                0x00000000   Number         0  stubs.o ABSOLUTE
    _printf_p                                0x00000000   Number         0  stubs.o ABSOLUTE
    _printf_percent                          0x00000000   Number         0  stubs.o ABSOLUTE
    _printf_pre_padding                      0x00000000   Number         0  stubs.o ABSOLUTE
    _printf_return_value                     0x00000000   Number         0  stubs.o ABSOLUTE
    _printf_s                                0x00000000   Number         0  stubs.o ABSOLUTE
    _printf_sizespec                         0x00000000   Number         0  stubs.o ABSOLUTE
    _printf_str                              0x00000000   Number         0  stubs.o ABSOLUTE
    _printf_truncate_signed                  0x00000000   Number         0  stubs.o ABSOLUTE
    _printf_truncate_unsigned                0x00000000   Number         0  stubs.o ABSOLUTE
    _printf_u                                0x00000000   Number         0  stubs.o ABSOLUTE
    _printf_wc                               0x00000000   Number         0  stubs.o ABSOLUTE
    _printf_wctomb                           0x00000000   Number         0  stubs.o ABSOLUTE
    _printf_widthprec                        0x00000000   Number         0  stubs.o ABSOLUTE
    _printf_x                                0x00000000   Number         0  stubs.o ABSOLUTE
    __cpp_initialize__aeabi_                  - Undefined Weak Reference
    __cxa_finalize                            - Undefined Weak Reference
    _clock_init                               - Undefined Weak Reference
    _microlib_exit                            - Undefined Weak Reference
    __Vectors_Size                           0x00000188   Number         0  startup_stm32f4xx.o ABSOLUTE
    __Vectors                                0x08000000   Data           4  startup_stm32f4xx.o(RESET)
    __Vectors_End                            0x08000188   Data           0  startup_stm32f4xx.o(RESET)
    __main                                   0x08000189   Thumb Code     0  entry.o(.ARM.Collect$$$$00000000)
    _main_stk                                0x08000189   Thumb Code     0  entry2.o(.ARM.Collect$$$$00000001)
    _main_scatterload                        0x0800018d   Thumb Code     0  entry5.o(.ARM.Collect$$$$00000004)
    __main_after_scatterload                 0x08000191   Thumb Code     0  entry5.o(.ARM.Collect$$$$00000004)
    _main_clock                              0x08000191   Thumb Code     0  entry7b.o(.ARM.Collect$$$$00000008)
    _main_cpp_init                           0x08000191   Thumb Code     0  entry8b.o(.ARM.Collect$$$$0000000A)
    _main_init                               0x08000191   Thumb Code     0  entry9a.o(.ARM.Collect$$$$0000000B)
    __rt_final_cpp                           0x08000199   Thumb Code     0  entry10a.o(.ARM.Collect$$$$0000000D)
    __rt_final_exit                          0x08000199   Thumb Code     0  entry11a.o(.ARM.Collect$$$$0000000F)
    Reset_Handler                            0x0800019d   Thumb Code     8  startup_stm32f4xx.o(.text)
    ADC_IRQHandler                           0x080001b7   Thumb Code     0  startup_stm32f4xx.o(.text)
    CAN1_RX1_IRQHandler                      0x080001b7   Thumb Code     0  startup_stm32f4xx.o(.text)
    CAN1_SCE_IRQHandler                      0x080001b7   Thumb Code     0  startup_stm32f4xx.o(.text)
    CAN1_TX_IRQHandler                       0x080001b7   Thumb Code     0  startup_stm32f4xx.o(.text)
    CAN2_RX0_IRQHandler                      0x080001b7   Thumb Code     0  startup_stm32f4xx.o(.text)
    CAN2_SCE_IRQHandler                      0x080001b7   Thumb Code     0  startup_stm32f4xx.o(.text)
    CAN2_TX_IRQHandler                       0x080001b7   Thumb Code     0  startup_stm32f4xx.o(.text)
    CRYP_IRQHandler                          0x080001b7   Thumb Code     0  startup_stm32f4xx.o(.text)
    DCMI_IRQHandler                          0x080001b7   Thumb Code     0  startup_stm32f4xx.o(.text)
    DMA1_Stream0_IRQHandler                  0x080001b7   Thumb Code     0  startup_stm32f4xx.o(.text)
    DMA1_Stream2_IRQHandler                  0x080001b7   Thumb Code     0  startup_stm32f4xx.o(.text)
    DMA1_Stream3_IRQHandler                  0x080001b7   Thumb Code     0  startup_stm32f4xx.o(.text)
    DMA1_Stream4_IRQHandler                  0x080001b7   Thumb Code     0  startup_stm32f4xx.o(.text)
    DMA1_Stream5_IRQHandler                  0x080001b7   Thumb Code     0  startup_stm32f4xx.o(.text)
    DMA1_Stream6_IRQHandler                  0x080001b7   Thumb Code     0  startup_stm32f4xx.o(.text)
    DMA1_Stream7_IRQHandler                  0x080001b7   Thumb Code     0  startup_stm32f4xx.o(.text)
    DMA2_Stream0_IRQHandler                  0x080001b7   Thumb Code     0  startup_stm32f4xx.o(.text)
    DMA2_Stream1_IRQHandler                  0x080001b7   Thumb Code     0  startup_stm32f4xx.o(.text)
    DMA2_Stream3_IRQHandler                  0x080001b7   Thumb Code     0  startup_stm32f4xx.o(.text)
    DMA2_Stream4_IRQHandler                  0x080001b7   Thumb Code     0  startup_stm32f4xx.o(.text)
    DMA2_Stream5_IRQHandler                  0x080001b7   Thumb Code     0  startup_stm32f4xx.o(.text)
    DMA2_Stream6_IRQHandler                  0x080001b7   Thumb Code     0  startup_stm32f4xx.o(.text)
    DMA2_Stream7_IRQHandler                  0x080001b7   Thumb Code     0  startup_stm32f4xx.o(.text)
    ETH_IRQHandler                           0x080001b7   Thumb Code     0  startup_stm32f4xx.o(.text)
    ETH_WKUP_IRQHandler                      0x080001b7   Thumb Code     0  startup_stm32f4xx.o(.text)
    EXTI0_IRQHandler                         0x080001b7   Thumb Code     0  startup_stm32f4xx.o(.text)
    EXTI15_10_IRQHandler                     0x080001b7   Thumb Code     0  startup_stm32f4xx.o(.text)
    EXTI1_IRQHandler                         0x080001b7   Thumb Code     0  startup_stm32f4xx.o(.text)
    EXTI2_IRQHandler                         0x080001b7   Thumb Code     0  startup_stm32f4xx.o(.text)
    EXTI3_IRQHandler                         0x080001b7   Thumb Code     0  startup_stm32f4xx.o(.text)
    EXTI4_IRQHandler                         0x080001b7   Thumb Code     0  startup_stm32f4xx.o(.text)
    EXTI9_5_IRQHandler                       0x080001b7   Thumb Code     0  startup_stm32f4xx.o(.text)
    FLASH_IRQHandler                         0x080001b7   Thumb Code     0  startup_stm32f4xx.o(.text)
    FPU_IRQHandler                           0x080001b7   Thumb Code     0  startup_stm32f4xx.o(.text)
    FSMC_IRQHandler                          0x080001b7   Thumb Code     0  startup_stm32f4xx.o(.text)
    HASH_RNG_IRQHandler                      0x080001b7   Thumb Code     0  startup_stm32f4xx.o(.text)
    I2C1_ER_IRQHandler                       0x080001b7   Thumb Code     0  startup_stm32f4xx.o(.text)
    I2C1_EV_IRQHandler                       0x080001b7   Thumb Code     0  startup_stm32f4xx.o(.text)
    I2C2_ER_IRQHandler                       0x080001b7   Thumb Code     0  startup_stm32f4xx.o(.text)
    I2C2_EV_IRQHandler                       0x080001b7   Thumb Code     0  startup_stm32f4xx.o(.text)
    I2C3_ER_IRQHandler                       0x080001b7   Thumb Code     0  startup_stm32f4xx.o(.text)
    I2C3_EV_IRQHandler                       0x080001b7   Thumb Code     0  startup_stm32f4xx.o(.text)
    OTG_FS_IRQHandler                        0x080001b7   Thumb Code     0  startup_stm32f4xx.o(.text)
    OTG_FS_WKUP_IRQHandler                   0x080001b7   Thumb Code     0  startup_stm32f4xx.o(.text)
    OTG_HS_EP1_IN_IRQHandler                 0x080001b7   Thumb Code     0  startup_stm32f4xx.o(.text)
    OTG_HS_EP1_OUT_IRQHandler                0x080001b7   Thumb Code     0  startup_stm32f4xx.o(.text)
    OTG_HS_IRQHandler                        0x080001b7   Thumb Code     0  startup_stm32f4xx.o(.text)
    OTG_HS_WKUP_IRQHandler                   0x080001b7   Thumb Code     0  startup_stm32f4xx.o(.text)
    PVD_IRQHandler                           0x080001b7   Thumb Code     0  startup_stm32f4xx.o(.text)
    RCC_IRQHandler                           0x080001b7   Thumb Code     0  startup_stm32f4xx.o(.text)
    RTC_Alarm_IRQHandler                     0x080001b7   Thumb Code     0  startup_stm32f4xx.o(.text)
    RTC_WKUP_IRQHandler                      0x080001b7   Thumb Code     0  startup_stm32f4xx.o(.text)
    SDIO_IRQHandler                          0x080001b7   Thumb Code     0  startup_stm32f4xx.o(.text)
    SPI1_IRQHandler                          0x080001b7   Thumb Code     0  startup_stm32f4xx.o(.text)
    SPI2_IRQHandler                          0x080001b7   Thumb Code     0  startup_stm32f4xx.o(.text)
    SPI3_IRQHandler                          0x080001b7   Thumb Code     0  startup_stm32f4xx.o(.text)
    TAMP_STAMP_IRQHandler                    0x080001b7   Thumb Code     0  startup_stm32f4xx.o(.text)
    TIM1_BRK_TIM9_IRQHandler                 0x080001b7   Thumb Code     0  startup_stm32f4xx.o(.text)
    TIM1_CC_IRQHandler                       0x080001b7   Thumb Code     0  startup_stm32f4xx.o(.text)
    TIM1_TRG_COM_TIM11_IRQHandler            0x080001b7   Thumb Code     0  startup_stm32f4xx.o(.text)
    TIM1_UP_TIM10_IRQHandler                 0x080001b7   Thumb Code     0  startup_stm32f4xx.o(.text)
    TIM3_IRQHandler                          0x080001b7   Thumb Code     0  startup_stm32f4xx.o(.text)
    TIM4_IRQHandler                          0x080001b7   Thumb Code     0  startup_stm32f4xx.o(.text)
    TIM6_DAC_IRQHandler                      0x080001b7   Thumb Code     0  startup_stm32f4xx.o(.text)
    TIM7_IRQHandler                          0x080001b7   Thumb Code     0  startup_stm32f4xx.o(.text)
    TIM8_BRK_TIM12_IRQHandler                0x080001b7   Thumb Code     0  startup_stm32f4xx.o(.text)
    TIM8_CC_IRQHandler                       0x080001b7   Thumb Code     0  startup_stm32f4xx.o(.text)
    TIM8_TRG_COM_TIM14_IRQHandler            0x080001b7   Thumb Code     0  startup_stm32f4xx.o(.text)
    TIM8_UP_TIM13_IRQHandler                 0x080001b7   Thumb Code     0  startup_stm32f4xx.o(.text)
    UART4_IRQHandler                         0x080001b7   Thumb Code     0  startup_stm32f4xx.o(.text)
    UART5_IRQHandler                         0x080001b7   Thumb Code     0  startup_stm32f4xx.o(.text)
    USART1_IRQHandler                        0x080001b7   Thumb Code     0  startup_stm32f4xx.o(.text)
    USART2_IRQHandler                        0x080001b7   Thumb Code     0  startup_stm32f4xx.o(.text)
    USART3_IRQHandler                        0x080001b7   Thumb Code     0  startup_stm32f4xx.o(.text)
    WWDG_IRQHandler                          0x080001b7   Thumb Code     0  startup_stm32f4xx.o(.text)
    __aeabi_dadd                             0x080001c1   Thumb Code   322  dadd.o(.text)
    __aeabi_dsub                             0x08000303   Thumb Code     6  dadd.o(.text)
    __aeabi_drsub                            0x08000309   Thumb Code     6  dadd.o(.text)
    __aeabi_dmul                             0x0800030f   Thumb Code   228  dmul.o(.text)
    __aeabi_ddiv                             0x080003f3   Thumb Code   222  ddiv.o(.text)
    __aeabi_i2d                              0x080004d1   Thumb Code    34  dflti.o(.text)
    __aeabi_ui2d                             0x080004f3   Thumb Code    26  dfltui.o(.text)
    __aeabi_f2d                              0x0800050d   Thumb Code    38  f2d.o(.text)
    __aeabi_cdrcmple                         0x08000535   Thumb Code    48  cdrcmple.o(.text)
    __aeabi_d2f                              0x08000565   Thumb Code    56  d2f.o(.text)
    __aeabi_llsl                             0x0800059d   Thumb Code    30  llshl.o(.text)
    _ll_shift_l                              0x0800059d   Thumb Code     0  llshl.o(.text)
    __aeabi_lasr                             0x080005bb   Thumb Code    36  llsshr.o(.text)
    _ll_sshift_r                             0x080005bb   Thumb Code     0  llsshr.o(.text)
    __I$use$fp                               0x080005df   Thumb Code     0  iusefp.o(.text)
    _float_round                             0x080005df   Thumb Code    18  fepilogue.o(.text)
    _float_epilogue                          0x080005f1   Thumb Code    92  fepilogue.o(.text)
    _double_round                            0x0800064d   Thumb Code    30  depilogue.o(.text)
    _double_epilogue                         0x0800066b   Thumb Code   156  depilogue.o(.text)
    _dsqrt                                   0x08000707   Thumb Code   162  dsqrt.o(.text)
    __scatterload                            0x080007a9   Thumb Code    28  init.o(.text)
    __scatterload_rt2                        0x080007a9   Thumb Code     0  init.o(.text)
    __aeabi_llsr                             0x080007cd   Thumb Code    32  llushr.o(.text)
    _ll_ushift_r                             0x080007cd   Thumb Code     0  llushr.o(.text)
    __aeabi_d2iz                             0x080007ed   Thumb Code    62  dfixi.o(.text)
    __decompress                             0x0800082b   Thumb Code     0  __dczerorl2.o(.text)
    __decompress1                            0x0800082b   Thumb Code    86  __dczerorl2.o(.text)
    ADC_Cmd                                  0x08000881   Thumb Code    22  stm32f4xx_adc.o(i.ADC_Cmd)
    ADC_CommonInit                           0x08000899   Thumb Code    34  stm32f4xx_adc.o(i.ADC_CommonInit)
    ADC_GetConversionValue                   0x080008c9   Thumb Code     8  stm32f4xx_adc.o(i.ADC_GetConversionValue)
    ADC_GetFlagStatus                        0x080008d1   Thumb Code    18  stm32f4xx_adc.o(i.ADC_GetFlagStatus)
    ADC_Init                                 0x080008e5   Thumb Code    74  stm32f4xx_adc.o(i.ADC_Init)
    ADC_RegularChannelConfig                 0x08000939   Thumb Code   184  stm32f4xx_adc.o(i.ADC_RegularChannelConfig)
    ADC_SoftwareStartConv                    0x080009f1   Thumb Code    10  stm32f4xx_adc.o(i.ADC_SoftwareStartConv)
    Adc_Init                                 0x080009fd   Thumb Code   124  adc.o(i.Adc_Init)
    AutoCatch_CatchBullet                    0x08000a81   Thumb Code   214  catchbullet.o(i.AutoCatch_CatchBullet)
    AutoCatch_TaskControl                    0x08000b91   Thumb Code   362  catchcontrol.o(i.AutoCatch_TaskControl)
    AutoCatch_TaskJudge                      0x08000d31   Thumb Code   150  catchcontrol.o(i.AutoCatch_TaskJudge)
    AutoCatch_tInit                          0x08000dd9   Thumb Code    74  catchcontrol.o(i.AutoCatch_tInit)
    BSP_Init                                 0x08000e6d   Thumb Code   118  bsp.o(i.BSP_Init)
    Bullet_Load_Judge                        0x08000ee5   Thumb Code    20  shootcontrol.o(i.Bullet_Load_Judge)
    BusFault_Handler                         0x08000f05   Thumb Code     4  stm32f4xx_it.o(i.BusFault_Handler)
    Buzzer_Init                              0x08000f09   Thumb Code   166  buzzer.o(i.Buzzer_Init)
    CAN1_Cmd_All                             0x08000fb9   Thumb Code    84  can.o(i.CAN1_Cmd_All)
    CAN1_Mode_Init                           0x08001011   Thumb Code   248  can.o(i.CAN1_Mode_Init)
    CAN1_RX0_IRQHandler                      0x08001111   Thumb Code   234  can.o(i.CAN1_RX0_IRQHandler)
    CAN1_Send_Bottom                         0x08001221   Thumb Code    96  can.o(i.CAN1_Send_Bottom)
    CAN2_Cmd_SHOOT                           0x08001285   Thumb Code   144  can.o(i.CAN2_Cmd_SHOOT)
    CAN2_Mode_Init                           0x08001321   Thumb Code   254  can.o(i.CAN2_Mode_Init)
    CAN2_RX1_IRQHandler                      0x08001429   Thumb Code   894  can.o(i.CAN2_RX1_IRQHandler)
    CAN2_Send_Bottom                         0x08001809   Thumb Code    86  can.o(i.CAN2_Send_Bottom)
    CAN_ClearITPendingBit                    0x08001865   Thumb Code   162  stm32f4xx_can.o(i.CAN_ClearITPendingBit)
    CAN_FilterInit                           0x0800190d   Thumb Code   258  stm32f4xx_can.o(i.CAN_FilterInit)
    CAN_GetITStatus                          0x08001a15   Thumb Code   284  stm32f4xx_can.o(i.CAN_GetITStatus)
    CAN_ITConfig                             0x08001b35   Thumb Code    18  stm32f4xx_can.o(i.CAN_ITConfig)
    CAN_Init                                 0x08001b47   Thumb Code   276  stm32f4xx_can.o(i.CAN_Init)
    CAN_Receive                              0x08001c5b   Thumb Code   240  stm32f4xx_can.o(i.CAN_Receive)
    CAN_Transmit                             0x08001d4b   Thumb Code   294  stm32f4xx_can.o(i.CAN_Transmit)
    CMControlInit                            0x08001e71   Thumb Code    20  cmcontrol.o(i.CMControlInit)
    CMControlLoop                            0x08001e85   Thumb Code   142  cmcontrol.o(i.CMControlLoop)
    CMControlOut                             0x08001f31   Thumb Code   366  cmcontrol.o(i.CMControlOut)
    CMPID_Init                               0x080020c1   Thumb Code    80  cmcontrol.o(i.CMPID_Init)
    CMSpeedLegalize                          0x08002139   Thumb Code    46  cmcontrol.o(i.CMSpeedLegalize)
    CMStop                                   0x08002167   Thumb Code    16  cmcontrol.o(i.CMStop)
    CMWatt_Cal                               0x08002179   Thumb Code   180  monitorcontrol.o(i.CMWatt_Cal)
    CatchControl                             0x0800223d   Thumb Code   302  catchcontrol.o(i.CatchControl)
    CatchInit                                0x0800239d   Thumb Code    26  catchcontrol.o(i.CatchInit)
    Control_Task                             0x080023c9   Thumb Code   238  controltask.o(i.Control_Task)
    Cylinder_Configuration                   0x080024c9   Thumb Code    54  cylinder.o(i.Cylinder_Configuration)
    DMA1_Stream1_IRQHandler                  0x08002505   Thumb Code    30  usart3.o(i.DMA1_Stream1_IRQHandler)
    DMA2_Stream2_IRQHandler                  0x0800252d   Thumb Code   282  rc.o(i.DMA2_Stream2_IRQHandler)
    DMA_ClearFlag                            0x0800265d   Thumb Code    38  stm32f4xx_dma.o(i.DMA_ClearFlag)
    DMA_ClearITPendingBit                    0x08002691   Thumb Code    38  stm32f4xx_dma.o(i.DMA_ClearITPendingBit)
    DMA_Cmd                                  0x080026c5   Thumb Code    22  stm32f4xx_dma.o(i.DMA_Cmd)
    DMA_DeInit                               0x080026dd   Thumb Code   324  stm32f4xx_dma.o(i.DMA_DeInit)
    DMA_GetITStatus                          0x08002835   Thumb Code    82  stm32f4xx_dma.o(i.DMA_GetITStatus)
    DMA_ITConfig                             0x08002899   Thumb Code    58  stm32f4xx_dma.o(i.DMA_ITConfig)
    DMA_Init                                 0x080028d5   Thumb Code    82  stm32f4xx_dma.o(i.DMA_Init)
    DebugMon_Handler                         0x0800292d   Thumb Code     2  stm32f4xx_it.o(i.DebugMon_Handler)
    Empty_Detection                          0x08002931   Thumb Code   114  shootcontrol.o(i.Empty_Detection)
    FrictionControl                          0x080029bd   Thumb Code    84  shootcontrol.o(i.FrictionControl)
    FrictionJudge                            0x08002a25   Thumb Code   156  shootcontrol.o(i.FrictionJudge)
    GPIO_Init                                0x08002ad5   Thumb Code   144  stm32f4xx_gpio.o(i.GPIO_Init)
    GPIO_PinAFConfig                         0x08002b65   Thumb Code    70  stm32f4xx_gpio.o(i.GPIO_PinAFConfig)
    GPIO_ReadInputDataBit                    0x08002bab   Thumb Code    18  stm32f4xx_gpio.o(i.GPIO_ReadInputDataBit)
    GPIO_ResetBits                           0x08002bbd   Thumb Code     4  stm32f4xx_gpio.o(i.GPIO_ResetBits)
    GPIO_SetBits                             0x08002bc1   Thumb Code     4  stm32f4xx_gpio.o(i.GPIO_SetBits)
    Get_Adc                                  0x08002bc5   Thumb Code    44  adc.o(i.Get_Adc)
    GimbalControlInit                        0x08002bf5   Thumb Code    48  gimbalcontrol.o(i.GimbalControlInit)
    GimbalControlLoop                        0x08002c2d   Thumb Code    90  gimbalcontrol.o(i.GimbalControlLoop)
    GimbalControlValSet                      0x08002ca5   Thumb Code   732  gimbalcontrol.o(i.GimbalControlValSet)
    GimbalControl_Pitch                      0x08002fe1   Thumb Code   140  gimbalcontrol.o(i.GimbalControl_Pitch)
    GimbalControl_PitchAngel                 0x0800308d   Thumb Code   164  gimbalcontrol.o(i.GimbalControl_PitchAngel)
    GimbalControl_Yaw                        0x08003155   Thumb Code   156  gimbalcontrol.o(i.GimbalControl_Yaw)
    GimbalControl_YawAngel                   0x08003211   Thumb Code   168  gimbalcontrol.o(i.GimbalControl_YawAngel)
    GimbalMove                               0x080032dd   Thumb Code   150  gimbalcontrol.o(i.GimbalMove)
    GimbalPidInit                            0x08003389   Thumb Code   164  gimbalcontrol.o(i.GimbalPidInit)
    GimbalPidInitPrepare                     0x08003451   Thumb Code   164  gimbalcontrol.o(i.GimbalPidInitPrepare)
    GimbalStop                               0x0800351d   Thumb Code    66  gimbalcontrol.o(i.GimbalStop)
    GimbalSwitchJudge                        0x0800357d   Thumb Code    48  remotecontrol.o(i.GimbalSwitchJudge)
    GimbalValLigal                           0x080035b9   Thumb Code    32  gimbalcontrol.o(i.GimbalValLigal)
    GunControl                               0x080035d9   Thumb Code    26  shootcontrol.o(i.GunControl)
    GunShootAction                           0x080035f9   Thumb Code   222  shootcontrol.o(i.GunShootAction)
    HardFault_Handler                        0x08003709   Thumb Code     4  stm32f4xx_it.o(i.HardFault_Handler)
    Infrared_Configuration                   0x0800370d   Thumb Code    54  infrared.o(i.Infrared_Configuration)
    ItoE                                     0x0800374d   Thumb Code   202  rc.o(i.ItoE)
    Laser_Configuration                      0x08003829   Thumb Code    60  laser.o(i.Laser_Configuration)
    Led_Configuration                        0x08003869   Thumb Code    80  led.o(i.Led_Configuration)
    LiftPosSpeedcal                          0x080038c1   Thumb Code   252  catchbullet.o(i.LiftPosSpeedcal)
    Lift_Legalize                            0x080039e5   Thumb Code    46  catchbullet.o(i.Lift_Legalize)
    MPU6500ReadSPI                           0x08003a15   Thumb Code    56  mpu6500.o(i.MPU6500ReadSPI)
    MPU6500ReadSPISingle                     0x08003a51   Thumb Code    38  mpu6500.o(i.MPU6500ReadSPISingle)
    MPU6500WriteSPI                          0x08003a81   Thumb Code    38  mpu6500.o(i.MPU6500WriteSPI)
    MPU6500_Init                             0x08003ab1   Thumb Code   156  mpu6500.o(i.MPU6500_Init)
    MPU6500_Read                             0x08003b4d   Thumb Code   386  mpu6500.o(i.MPU6500_Read)
    MemManage_Handler                        0x08003cf5   Thumb Code     4  stm32f4xx_it.o(i.MemManage_Handler)
    MotorCurrentLegalize                     0x08003cf9   Thumb Code    46  gimbalcontrol.o(i.MotorCurrentLegalize)
    MotorPositionLegalize                    0x08003d27   Thumb Code    46  gimbalcontrol.o(i.MotorPositionLegalize)
    NMI_Handler                              0x08003d55   Thumb Code     2  stm32f4xx_it.o(i.NMI_Handler)
    NVIC_Init                                0x08003d59   Thumb Code   106  misc.o(i.NVIC_Init)
    PID_BitIsSet                             0x08003dd1   Thumb Code    18  pid.o(i.PID_BitIsSet)
    PID_Calc                                 0x08003de5   Thumb Code   366  pid.o(i.PID_Calc)
    PID_Driver                               0x08003f5d   Thumb Code    44  pid.o(i.PID_Driver)
    PID_Init                                 0x08003f89   Thumb Code    34  pid.o(i.PID_Init)
    PID_PreCalc                              0x08003fad   Thumb Code   162  pid.o(i.PID_PreCalc)
    PendSV_Handler                           0x08004055   Thumb Code     2  stm32f4xx_it.o(i.PendSV_Handler)
    PlateMotorCurrentLegalize                0x08004057   Thumb Code    46  shootcontrol.o(i.PlateMotorCurrentLegalize)
    PlatePID                                 0x08004085   Thumb Code   136  shootcontrol.o(i.PlatePID)
    PlatePidInit                             0x0800412d   Thumb Code    84  shootcontrol.o(i.PlatePidInit)
    PowerMonitor                             0x08004199   Thumb Code   192  monitorcontrol.o(i.PowerMonitor)
    RCC_AHB1PeriphClockCmd                   0x08004281   Thumb Code    26  stm32f4xx_rcc.o(i.RCC_AHB1PeriphClockCmd)
    RCC_APB1PeriphClockCmd                   0x080042a1   Thumb Code    26  stm32f4xx_rcc.o(i.RCC_APB1PeriphClockCmd)
    RCC_APB1PeriphResetCmd                   0x080042c1   Thumb Code    26  stm32f4xx_rcc.o(i.RCC_APB1PeriphResetCmd)
    RCC_APB2PeriphClockCmd                   0x080042e1   Thumb Code    26  stm32f4xx_rcc.o(i.RCC_APB2PeriphClockCmd)
    RCC_APB2PeriphResetCmd                   0x08004301   Thumb Code    26  stm32f4xx_rcc.o(i.RCC_APB2PeriphResetCmd)
    RCC_GetClocksFreq                        0x08004321   Thumb Code   214  stm32f4xx_rcc.o(i.RCC_GetClocksFreq)
    RC_Init                                  0x08004409   Thumb Code   264  rc.o(i.RC_Init)
    RcReceiveMonitor                         0x08004529   Thumb Code    66  monitorcontrol.o(i.RcReceiveMonitor)
    Read_Infrared_State                      0x0800457d   Thumb Code    30  shootcontrol.o(i.Read_Infrared_State)
    RemoteControlInit                        0x080045a9   Thumb Code    14  remotecontrol.o(i.RemoteControlInit)
    RemoteControlLoop                        0x080045bd   Thumb Code    16  remotecontrol.o(i.RemoteControlLoop)
    RemoteStateFSM                           0x080045cd   Thumb Code    72  remotecontrol.o(i.RemoteStateFSM)
    RotateSpeedcal                           0x08004621   Thumb Code   104  catchbullet.o(i.RotateSpeedcal)
    SPI5Init                                 0x080046a5   Thumb Code   218  spi.o(i.SPI5Init)
    SPI5ReadWriteByte                        0x08004791   Thumb Code    74  spi.o(i.SPI5ReadWriteByte)
    SVC_Handler                              0x080047e1   Thumb Code     2  stm32f4xx_it.o(i.SVC_Handler)
    SetPIDCR                                 0x080047e3   Thumb Code    16  pid.o(i.SetPIDCR)
    Set_Target                               0x080048e1   Thumb Code    44  shootcontrol.o(i.Set_Target)
    ShootControlInit                         0x08004919   Thumb Code    36  shootcontrol.o(i.ShootControlInit)
    ShootControlLoop                         0x08004941   Thumb Code   220  shootcontrol.o(i.ShootControlLoop)
    ShootStop                                0x08004a35   Thumb Code    30  shootcontrol.o(i.ShootStop)
    SysTick_CLKSourceConfig                  0x08004a61   Thumb Code    40  misc.o(i.SysTick_CLKSourceConfig)
    SysTick_Handler                          0x08004a89   Thumb Code     2  stm32f4xx_it.o(i.SysTick_Handler)
    SystemInit                               0x08004a8d   Thumb Code    88  system_stm32f4xx.o(i.SystemInit)
    TIM12_Init                               0x08004af5   Thumb Code   206  timer.o(i.TIM12_Init)
    TIM2_IRQHandler                          0x08004bcd   Thumb Code    32  timer.o(i.TIM2_IRQHandler)
    TIM2_Init                                0x08004bed   Thumb Code    90  timer.o(i.TIM2_Init)
    TIM5_IRQHandler                          0x08004c49   Thumb Code    72  timer.o(i.TIM5_IRQHandler)
    TIM5_Init                                0x08004c9d   Thumb Code    88  timer.o(i.TIM5_Init)
    TIM8_PWM_Init                            0x08004cf9   Thumb Code   236  pwm.o(i.TIM8_PWM_Init)
    TIM_ARRPreloadConfig                     0x08004ded   Thumb Code    24  stm32f4xx_tim.o(i.TIM_ARRPreloadConfig)
    TIM_ClearITPendingBit                    0x08004e05   Thumb Code     6  stm32f4xx_tim.o(i.TIM_ClearITPendingBit)
    TIM_Cmd                                  0x08004e0b   Thumb Code    24  stm32f4xx_tim.o(i.TIM_Cmd)
    TIM_CtrlPWMOutputs                       0x08004e23   Thumb Code    30  stm32f4xx_tim.o(i.TIM_CtrlPWMOutputs)
    TIM_GetITStatus                          0x08004e41   Thumb Code    34  stm32f4xx_tim.o(i.TIM_GetITStatus)
    TIM_ITConfig                             0x08004e63   Thumb Code    18  stm32f4xx_tim.o(i.TIM_ITConfig)
    TIM_OC1Init                              0x08004e75   Thumb Code   114  stm32f4xx_tim.o(i.TIM_OC1Init)
    TIM_OC1PreloadConfig                     0x08004ef1   Thumb Code    18  stm32f4xx_tim.o(i.TIM_OC1PreloadConfig)
    TIM_OC2Init                              0x08004f05   Thumb Code   154  stm32f4xx_tim.o(i.TIM_OC2Init)
    TIM_OC2PreloadConfig                     0x08004fa9   Thumb Code    26  stm32f4xx_tim.o(i.TIM_OC2PreloadConfig)
    TIM_SetCompare1                          0x08004fc3   Thumb Code     4  stm32f4xx_tim.o(i.TIM_SetCompare1)
    TIM_SetCompare2                          0x08004fc7   Thumb Code     4  stm32f4xx_tim.o(i.TIM_SetCompare2)
    TIM_TimeBaseInit                         0x08004fcd   Thumb Code   104  stm32f4xx_tim.o(i.TIM_TimeBaseInit)
    USART3_DMA_Init                          0x08005051   Thumb Code   270  usart3.o(i.USART3_DMA_Init)
    USART6_Configuration                     0x08005175   Thumb Code   172  usart6.o(i.USART6_Configuration)
    USART6_IRQHandler                        0x08005229   Thumb Code   138  usart6.o(i.USART6_IRQHandler)
    USART_ClearFlag                          0x080052c9   Thumb Code    18  stm32f4xx_usart.o(i.USART_ClearFlag)
    USART_Cmd                                0x080052db   Thumb Code    24  stm32f4xx_usart.o(i.USART_Cmd)
    USART_DMACmd                             0x080052f3   Thumb Code    18  stm32f4xx_usart.o(i.USART_DMACmd)
    USART_DeInit                             0x08005305   Thumb Code   156  stm32f4xx_usart.o(i.USART_DeInit)
    USART_GetITStatus                        0x080053b9   Thumb Code    84  stm32f4xx_usart.o(i.USART_GetITStatus)
    USART_ITConfig                           0x0800540d   Thumb Code    74  stm32f4xx_usart.o(i.USART_ITConfig)
    USART_Init                               0x08005459   Thumb Code   204  stm32f4xx_usart.o(i.USART_Init)
    USART_ReceiveData                        0x0800552d   Thumb Code    10  stm32f4xx_usart.o(i.USART_ReceiveData)
    UsageFault_Handler                       0x08005537   Thumb Code     4  stm32f4xx_it.o(i.UsageFault_Handler)
    WholeInitTask                            0x0800553d   Thumb Code    62  controltask.o(i.WholeInitTask)
    __ARM_fpclassify                         0x08005581   Thumb Code    48  fpclassify.o(i.__ARM_fpclassify)
    __hardfp_asin                            0x080055b1   Thumb Code   770  asin.o(i.__hardfp_asin)
    __hardfp_atan                            0x08005911   Thumb Code   622  atan.o(i.__hardfp_atan)
    __hardfp_atan2                           0x08005be9   Thumb Code   432  atan2.o(i.__hardfp_atan2)
    __hardfp_cos                             0x08005dd9   Thumb Code   180  cos.o(i.__hardfp_cos)
    __hardfp_fabs                            0x08005ea1   Thumb Code    20  fabs.o(i.__hardfp_fabs)
    __hardfp_sin                             0x08005eb9   Thumb Code   180  sin.o(i.__hardfp_sin)
    __hardfp_sqrt                            0x08005f81   Thumb Code   122  sqrt.o(i.__hardfp_sqrt)
    __ieee754_rem_pio2                       0x08006001   Thumb Code   938  rred.o(i.__ieee754_rem_pio2)
    __kernel_cos                             0x08006439   Thumb Code   322  cos_i.o(i.__kernel_cos)
    __kernel_poly                            0x080065a9   Thumb Code   248  poly.o(i.__kernel_poly)
    __kernel_sin                             0x080066a1   Thumb Code   280  sin_i.o(i.__kernel_sin)
    __mathlib_dbl_infnan                     0x080067d1   Thumb Code    20  dunder.o(i.__mathlib_dbl_infnan)
    __mathlib_dbl_infnan2                    0x080067e5   Thumb Code    20  dunder.o(i.__mathlib_dbl_infnan2)
    __mathlib_dbl_invalid                    0x080067f9   Thumb Code    24  dunder.o(i.__mathlib_dbl_invalid)
    __mathlib_dbl_underflow                  0x08006819   Thumb Code    24  dunder.o(i.__mathlib_dbl_underflow)
    __scatterload_copy                       0x08006839   Thumb Code    14  handlers.o(i.__scatterload_copy)
    __scatterload_null                       0x08006847   Thumb Code     2  handlers.o(i.__scatterload_null)
    __scatterload_zeroinit                   0x08006849   Thumb Code    14  handlers.o(i.__scatterload_zeroinit)
    __set_errno                              0x08006859   Thumb Code     6  errno.o(i.__set_errno)
    atan                                     0x08006865   Thumb Code    16  atan.o(i.atan)
    blocking_judge                           0x08006875   Thumb Code   160  shootcontrol.o(i.blocking_judge)
    catchfinish                              0x0800692d   Thumb Code    14  catchbullet.o(i.catchfinish)
    catchinit                                0x08006941   Thumb Code   136  catchbullet.o(i.catchinit)
    catchstart                               0x080069e5   Thumb Code    14  catchbullet.o(i.catchstart)
    delay_init                               0x080069f9   Thumb Code    52  delay.o(i.delay_init)
    delay_ms                                 0x08006a35   Thumb Code    56  delay.o(i.delay_ms)
    delay_xms                                0x08006a6d   Thumb Code    72  delay.o(i.delay_xms)
    fabs                                     0x08006ab9   Thumb Code    24  fabs.o(i.fabs)
    flift                                    0x08006ad1   Thumb Code    56  catchbullet.o(i.flift)
    fliftdown                                0x08006b15   Thumb Code    92  catchbullet.o(i.fliftdown)
    followValCal                             0x08006b7d   Thumb Code   108  cmcontrol.o(i.followValCal)
    getDeviceID                              0x08006bf5   Thumb Code    22  mpu6500.o(i.getDeviceID)
    gyro_offset                              0x08006c0d   Thumb Code   296  mpu6500.o(i.gyro_offset)
    init_euler                               0x08006d4d   Thumb Code   308  euler.o(i.init_euler)
    invSqrt                                  0x08006e9d   Thumb Code    56  euler.o(i.invSqrt)
    keyboardmove_old                         0x08006ed9   Thumb Code  1200  cmcontrol.o(i.keyboardmove_old)
    liftinit                                 0x08007395   Thumb Code   166  catchbullet.o(i.liftinit)
    main                                     0x08007465   Thumb Code     8  main.o(i.main)
    monitorControlLoop                       0x0800746d   Thumb Code    12  monitorcontrol.o(i.monitorControlLoop)
    move                                     0x08007479   Thumb Code   322  cmcontrol.o(i.move)
    movebackward                             0x080075d9   Thumb Code    14  catchbullet.o(i.movebackward)
    moveforward                              0x080075ed   Thumb Code    14  catchbullet.o(i.moveforward)
    moveinit                                 0x08007601   Thumb Code    60  catchbullet.o(i.moveinit)
    myabs                                    0x08007641   Thumb Code    16  mpu6500.o(i.myabs)
    sqrt                                     0x08007651   Thumb Code   110  sqrt.o(i.sqrt)
    update_euler                             0x080076c1   Thumb Code   812  euler.o(i.update_euler)
    __mathlib_zero                           0x08007b48   Data           8  qnan.o(.constdata)
    Region$$Table$$Base                      0x08007c40   Number         0  anon$$obj.o(Region$$Table)
    Region$$Table$$Limit                     0x08007c60   Number         0  anon$$obj.o(Region$$Table)
    remoteState                              0x20000000   Data           1  remotecontrol.o(.data)
    remoteState_ex                           0x20000001   Data           1  remotecontrol.o(.data)
    CMFollowVal                              0x20000004   Data           2  cmcontrol.o(.data)
    CMSwingVal                               0x20000006   Data           2  cmcontrol.o(.data)
    speedA                                   0x20000008   Data           2  cmcontrol.o(.data)
    speedB                                   0x2000000a   Data           2  cmcontrol.o(.data)
    speedC                                   0x2000000c   Data           2  cmcontrol.o(.data)
    speedD                                   0x2000000e   Data           2  cmcontrol.o(.data)
    step                                     0x20000010   Data           2  cmcontrol.o(.data)
    step_spin                                0x20000012   Data           2  cmcontrol.o(.data)
    x                                        0x20000014   Data           2  cmcontrol.o(.data)
    y                                        0x20000016   Data           2  cmcontrol.o(.data)
    m                                        0x20000018   Data           2  cmcontrol.o(.data)
    n                                        0x2000001a   Data           2  cmcontrol.o(.data)
    q                                        0x2000001c   Data           2  cmcontrol.o(.data)
    p                                        0x2000001e   Data           2  cmcontrol.o(.data)
    xlimit                                   0x20000020   Data           2  cmcontrol.o(.data)
    ylimit                                   0x20000022   Data           2  cmcontrol.o(.data)
    ele_dec                                  0x20000024   Data           4  cmcontrol.o(.data)
    quick_spin_flag                          0x20000028   Data           4  cmcontrol.o(.data)
    quick_spin_step                          0x2000002c   Data           4  cmcontrol.o(.data)
    follow_val_temp                          0x20000030   Data           2  cmcontrol.o(.data)
    flag_swing                               0x20000032   Data           1  cmcontrol.o(.data)
    swing_count                              0x20000034   Data           2  cmcontrol.o(.data)
    swing_dir                                0x20000036   Data           2  cmcontrol.o(.data)
    swing_add_dir                            0x20000038   Data           2  cmcontrol.o(.data)
    PIDOut_Position_Pit                      0x2000003c   Data           4  gimbalcontrol.o(.data)
    PIDOut_Speed_Pit                         0x20000040   Data           4  gimbalcontrol.o(.data)
    PIDOut_Whole_Pit                         0x20000044   Data           4  gimbalcontrol.o(.data)
    PIDOut_Position_Yaw                      0x20000048   Data           4  gimbalcontrol.o(.data)
    PIDOut_Speed_Yaw                         0x2000004c   Data           4  gimbalcontrol.o(.data)
    PIDOut_Whole_Yaw                         0x20000050   Data           4  gimbalcontrol.o(.data)
    PIDOut_Electricity_Yaw                   0x20000054   Data           4  gimbalcontrol.o(.data)
    angleSave                                0x20000058   Data           4  gimbalcontrol.o(.data)
    position_yaw_relative                    0x2000005c   Data           2  gimbalcontrol.o(.data)
    tch3                                     0x2000005e   Data           2  gimbalcontrol.o(.data)
    IsInitialKey                             0x20000060   Data           1  gimbalcontrol.o(.data)
    frictionState                            0x20000064   Data           2  shootcontrol.o(.data)
    friction_count                           0x20000066   Data           2  shootcontrol.o(.data)
    flag_FrtctionDelay                       0x20000068   Data           1  shootcontrol.o(.data)
    bullet_loaded                            0x2000007c   Data           4  shootcontrol.o(.data)
    empty_flag                               0x20000080   Data           4  shootcontrol.o(.data)
    bullet_count                             0x20000084   Data           4  shootcontrol.o(.data)
    infrared1_state_prvious                  0x20000088   Data           4  shootcontrol.o(.data)
    infrared1_state_now                      0x2000008c   Data           4  shootcontrol.o(.data)
    infrared2_state_prvious                  0x20000090   Data           4  shootcontrol.o(.data)
    infrared2_state_now                      0x20000094   Data           4  shootcontrol.o(.data)
    blocking_flag                            0x20000098   Data           4  shootcontrol.o(.data)
    blocking_target                          0x2000009c   Data           4  shootcontrol.o(.data)
    empty_count                              0x200000a0   Data           4  shootcontrol.o(.data)
    now_remote_state                         0x200000a4   Data           1  shootcontrol.o(.data)
    pre_remote_state                         0x200000a5   Data           1  shootcontrol.o(.data)
    press_judge                              0x200000a8   Data           4  shootcontrol.o(.data)
    read_count                               0x200000ac   Data           4  shootcontrol.o(.data)
    Plate_Control                            0x200000b0   Data           8  shootcontrol.o(.data)
    PIDOut_Position_Plate                    0x200000b8   Data           4  shootcontrol.o(.data)
    PIDOut_Speed_Plate                       0x200000bc   Data           4  shootcontrol.o(.data)
    PIDOut_Whole_Shoot                       0x200000c0   Data           4  shootcontrol.o(.data)
    PIDOut_Electricity_Plate                 0x200000c4   Data           4  shootcontrol.o(.data)
    pid_flag                                 0x200000c8   Data           1  shootcontrol.o(.data)
    pp                                       0x200000cc   Data           4  shootcontrol.o(.data)
    pi                                       0x200000d0   Data           4  shootcontrol.o(.data)
    pd                                       0x200000d4   Data           4  shootcontrol.o(.data)
    sp                                       0x200000d8   Data           4  shootcontrol.o(.data)
    si                                       0x200000dc   Data           4  shootcontrol.o(.data)
    sd                                       0x200000e0   Data           4  shootcontrol.o(.data)
    temp                                     0x200000e4   Data           4  shootcontrol.o(.data)
    plimit                                   0x200000e8   Data           4  shootcontrol.o(.data)
    slimit                                   0x200000ec   Data           4  shootcontrol.o(.data)
    input_flag                               0x200000f0   Data           4  shootcontrol.o(.data)
    OriginalPlatePos                         0x200000f4   Data           4  shootcontrol.o(.data)
    now_press                                0x200000f8   Data           4  shootcontrol.o(.data)
    last_press                               0x200000fc   Data           4  shootcontrol.o(.data)
    ele_cal                                  0x20000100   Data           4  monitorcontrol.o(.data)
    rc_monitor_time                          0x20000104   Data           2  monitorcontrol.o(.data)
    pressflagl                               0x20000108   Data           1  catchcontrol.o(.data)
    lastpressflagl                           0x20000109   Data           1  catchcontrol.o(.data)
    pressflagr                               0x2000010a   Data           1  catchcontrol.o(.data)
    lastpressflagr                           0x2000010b   Data           1  catchcontrol.o(.data)
    IsInitialSet0                            0x2000010c   Data           1  catchcontrol.o(.data)
    liftspeed                                0x2000010e   Data           2  catchcontrol.o(.data)
    rollspeed                                0x20000110   Data           2  catchcontrol.o(.data)
    l_flag                                   0x20000112   Data           1  catchcontrol.o(.data)
    r_flag                                   0x20000113   Data           1  catchcontrol.o(.data)
    tA_ms                                    0x20000114   Data           4  catchcontrol.o(.data)
    tB_ms                                    0x20000118   Data           4  catchcontrol.o(.data)
    tC_ms                                    0x2000011c   Data           4  catchcontrol.o(.data)
    tD_ms                                    0x20000120   Data           4  catchcontrol.o(.data)
    tE_ms                                    0x20000124   Data           4  catchcontrol.o(.data)
    tF_ms                                    0x20000128   Data           4  catchcontrol.o(.data)
    tG_ms                                    0x2000012c   Data           4  catchcontrol.o(.data)
    tH_ms                                    0x20000130   Data           4  catchcontrol.o(.data)
    tI_ms                                    0x20000134   Data           4  catchcontrol.o(.data)
    tA_Init_ms                               0x20000138   Data           4  catchcontrol.o(.data)
    tB_Init_ms                               0x2000013c   Data           4  catchcontrol.o(.data)
    tC_Init_ms                               0x20000140   Data           4  catchcontrol.o(.data)
    tD_Init_ms                               0x20000144   Data           4  catchcontrol.o(.data)
    tE_Init_ms                               0x20000148   Data           4  catchcontrol.o(.data)
    tF_Init_ms                               0x2000014c   Data           4  catchcontrol.o(.data)
    tG_Init_ms                               0x20000150   Data           4  catchcontrol.o(.data)
    tH_Init_ms                               0x20000154   Data           4  catchcontrol.o(.data)
    tI_Init_ms                               0x20000158   Data           4  catchcontrol.o(.data)
    CATCH_REG                                0x2000015c   Data           1  catchcontrol.o(.data)
    ID                                       0x2000015d   Data           1  catchcontrol.o(.data)
    time_tick_1ms                            0x20000160   Data           4  controltask.o(.data)
    rc_count00                               0x20000164   Data           4  controltask.o(.data)
    TIM5_time_count                          0x2000016c   Data           2  timer.o(.data)
    flag_Ready                               0x2000016e   Data           1  timer.o(.data)
    offset_x                                 0x20000170   Data           4  mpu6500.o(.data)
    offset_y                                 0x20000174   Data           4  mpu6500.o(.data)
    offset_z                                 0x20000178   Data           4  mpu6500.o(.data)
    usart6_rxbuf                             0x20000180   Data           1  usart6.o(.data)
    usart6_flag                              0x20000181   Data           1  usart6.o(.data)
    __stdout                                 0x20000184   Data           4  usart6.o(.data)
    USART_RX_STA                             0x20000188   Data           2  usart6.o(.data)
    flag_friction_switch                     0x2000018a   Data           1  rc.o(.data)
    friction_rc_last_position                0x2000018b   Data           1  rc.o(.data)
    rc_monitor_count                         0x2000018c   Data           2  rc.o(.data)
    rc_monitor_ex_count                      0x2000018e   Data           2  rc.o(.data)
    flag_rc_offline                          0x20000190   Data           1  rc.o(.data)
    current_position_206                     0x20000194   Data           2  can.o(.data)
    current_position_205                     0x20000196   Data           2  can.o(.data)
    current_cm_201                           0x20000198   Data           2  can.o(.data)
    current_cm_202                           0x2000019a   Data           2  can.o(.data)
    current_cm_203                           0x2000019c   Data           2  can.o(.data)
    current_cm_204                           0x2000019e   Data           2  can.o(.data)
    can2_current_speed201                    0x200001a0   Data           2  can.o(.data)
    can2_current_speed202                    0x200001a2   Data           2  can.o(.data)
    can2_current_speed203                    0x200001a4   Data           2  can.o(.data)
    can2_current_speed204                    0x200001a6   Data           2  can.o(.data)
    can2_current_angle201                    0x200001a8   Data           2  can.o(.data)
    can2_current_angle202                    0x200001aa   Data           2  can.o(.data)
    can2_current_angle203                    0x200001ac   Data           2  can.o(.data)
    can2_current_angle204                    0x200001ae   Data           2  can.o(.data)
    can2_last_angle201                       0x200001b0   Data           2  can.o(.data)
    can2_last_angle203                       0x200001b2   Data           2  can.o(.data)
    can2_last_angle202                       0x200001b4   Data           2  can.o(.data)
    can2_last_angle204                       0x200001b6   Data           2  can.o(.data)
    current_angle_201                        0x200001b8   Data           4  can.o(.data)
    current_angle_203                        0x200001bc   Data           4  can.o(.data)
    current_angle_202                        0x200001c0   Data           4  can.o(.data)
    current_angle_204                        0x200001c4   Data           4  can.o(.data)
    delta                                    0x200001c8   Data           2  can.o(.data)
    timell                                   0x200001cc   Data           4  can.o(.data)
    Yaw_gyro                                 0x200001d0   Data           4  euler.o(.data)
    Roll_gyro                                0x200001d4   Data           4  euler.o(.data)
    Pitch_gyro                               0x200001d8   Data           4  euler.o(.data)
    Yaw_mag                                  0x200001dc   Data           4  euler.o(.data)
    Roll_accel                               0x200001e0   Data           4  euler.o(.data)
    Pitch_accel                              0x200001e4   Data           4  euler.o(.data)
    Yaw                                      0x200001e8   Data           4  euler.o(.data)
    Roll                                     0x200001ec   Data           4  euler.o(.data)
    Pitch                                    0x200001f0   Data           4  euler.o(.data)
    Yaw_Offset                               0x200001f4   Data           4  euler.o(.data)
    Pitch_Offset                             0x200001f8   Data           4  euler.o(.data)
    Roll_Offset                              0x200001fc   Data           4  euler.o(.data)
    count                                    0x20000200   Data           4  euler.o(.data)
    rotate_speed                             0x20000208   Data           4  catchbullet.o(.data)
    liftspeed1                               0x2000020c   Data           4  catchbullet.o(.data)
    liftspeed2                               0x20000210   Data           4  catchbullet.o(.data)
    setangle1                                0x20000214   Data           4  catchbullet.o(.data)
    setangle2                                0x20000218   Data           4  catchbullet.o(.data)
    setrotate                                0x2000021c   Data           4  catchbullet.o(.data)
    lastrotate                               0x20000220   Data           4  catchbullet.o(.data)
    RotateFlag                               0x20000224   Data           4  catchbullet.o(.data)
    RotateDone                               0x20000228   Data           1  catchbullet.o(.data)
    CMPid                                    0x20000240   Data          56  cmcontrol.o(.bss)
    CMFollowPid                              0x20000278   Data          56  cmcontrol.o(.bss)
    Gimbal_control                           0x200002b0   Data          16  gimbalcontrol.o(.bss)
    MotorPID_pitch                           0x200002c0   Data         112  gimbalcontrol.o(.bss)
    MotorPID_yaw                             0x20000330   Data         112  gimbalcontrol.o(.bss)
    MotorPID_plate                           0x200003a0   Data         112  shootcontrol.o(.bss)
    mpu6500_raw_data                         0x20000410   Data          14  mpu6500.o(.bss)
    mpu6500_real_data                        0x20000420   Data          28  mpu6500.o(.bss)
    USART_RX_BUF                             0x2000043c   Data         200  usart6.o(.bss)
    RC_Ctl                                   0x20000504   Data          22  rc.o(.bss)
    RC_Ex_Ctl                                0x2000051a   Data          22  rc.o(.bss)
    sbus_rx_buffer                           0x20000530   Data          18  rc.o(.bss)
    rx_message                               0x20000544   Data          20  can.o(.bss)
    rx_message2                              0x20000558   Data          20  can.o(.bss)
    USART_RX_BUF3                            0x2000056c   Data         100  usart3.o(.bss)
    CatchRotatePid                           0x200005d0   Data          56  catchbullet.o(.bss)
    CatchRotateSPEEDPid                      0x20000608   Data          56  catchbullet.o(.bss)
    CatchLiftPid1                            0x20000640   Data          56  catchbullet.o(.bss)
    CatchLiftPid2                            0x20000678   Data          56  catchbullet.o(.bss)
    CatchLiftPOSPid1                         0x200006b0   Data          56  catchbullet.o(.bss)
    CatchLiftPOSPid2                         0x200006e8   Data          56  catchbullet.o(.bss)
    __initial_sp                             0x20000b20   Data           0  startup_stm32f4xx.o(STACK)



==============================================================================

Memory Map of the image

  Image Entry point : 0x08000189

  Load Region LR_IROM1 (Base: 0x08000000, Size: 0x00007ea0, Max: 0x00080000, ABSOLUTE, COMPRESSED[0x00007cdc])

    Execution Region ER_IROM1 (Exec base: 0x08000000, Load base: 0x08000000, Size: 0x00007c60, Max: 0x00080000, ABSOLUTE)

    Exec Addr    Load Addr    Size         Type   Attr      Idx    E Section Name        Object

    0x08000000   0x08000000   0x00000188   Data   RO         6131    RESET               startup_stm32f4xx.o
    0x08000188   0x08000188   0x00000000   Code   RO         6204  * .ARM.Collect$$$$00000000  mc_w.l(entry.o)
    0x08000188   0x08000188   0x00000004   Code   RO         6535    .ARM.Collect$$$$00000001  mc_w.l(entry2.o)
    0x0800018c   0x0800018c   0x00000004   Code   RO         6538    .ARM.Collect$$$$00000004  mc_w.l(entry5.o)
    0x08000190   0x08000190   0x00000000   Code   RO         6540    .ARM.Collect$$$$00000008  mc_w.l(entry7b.o)
    0x08000190   0x08000190   0x00000000   Code   RO         6542    .ARM.Collect$$$$0000000A  mc_w.l(entry8b.o)
    0x08000190   0x08000190   0x00000008   Code   RO         6543    .ARM.Collect$$$$0000000B  mc_w.l(entry9a.o)
    0x08000198   0x08000198   0x00000000   Code   RO         6545    .ARM.Collect$$$$0000000D  mc_w.l(entry10a.o)
    0x08000198   0x08000198   0x00000000   Code   RO         6547    .ARM.Collect$$$$0000000F  mc_w.l(entry11a.o)
    0x08000198   0x08000198   0x00000004   Code   RO         6536    .ARM.Collect$$$$00002712  mc_w.l(entry2.o)
    0x0800019c   0x0800019c   0x00000024   Code   RO         6132    .text               startup_stm32f4xx.o
    0x080001c0   0x080001c0   0x0000014e   Code   RO         6472    .text               mf_w.l(dadd.o)
    0x0800030e   0x0800030e   0x000000e4   Code   RO         6474    .text               mf_w.l(dmul.o)
    0x080003f2   0x080003f2   0x000000de   Code   RO         6476    .text               mf_w.l(ddiv.o)
    0x080004d0   0x080004d0   0x00000022   Code   RO         6478    .text               mf_w.l(dflti.o)
    0x080004f2   0x080004f2   0x0000001a   Code   RO         6480    .text               mf_w.l(dfltui.o)
    0x0800050c   0x0800050c   0x00000026   Code   RO         6482    .text               mf_w.l(f2d.o)
    0x08000532   0x08000532   0x00000002   PAD
    0x08000534   0x08000534   0x00000030   Code   RO         6484    .text               mf_w.l(cdrcmple.o)
    0x08000564   0x08000564   0x00000038   Code   RO         6486    .text               mf_w.l(d2f.o)
    0x0800059c   0x0800059c   0x0000001e   Code   RO         6553    .text               mc_w.l(llshl.o)
    0x080005ba   0x080005ba   0x00000024   Code   RO         6555    .text               mc_w.l(llsshr.o)
    0x080005de   0x080005de   0x00000000   Code   RO         6564    .text               mc_w.l(iusefp.o)
    0x080005de   0x080005de   0x0000006e   Code   RO         6565    .text               mf_w.l(fepilogue.o)
    0x0800064c   0x0800064c   0x000000ba   Code   RO         6567    .text               mf_w.l(depilogue.o)
    0x08000706   0x08000706   0x000000a2   Code   RO         6571    .text               mf_w.l(dsqrt.o)
    0x080007a8   0x080007a8   0x00000024   Code   RO         6577    .text               mc_w.l(init.o)
    0x080007cc   0x080007cc   0x00000020   Code   RO         6579    .text               mc_w.l(llushr.o)
    0x080007ec   0x080007ec   0x0000003e   Code   RO         6581    .text               mf_w.l(dfixi.o)
    0x0800082a   0x0800082a   0x00000056   Code   RO         6591    .text               mc_w.l(__dczerorl2.o)
    0x08000880   0x08000880   0x00000016   Code   RO         1986    i.ADC_Cmd           stm32f4xx_adc.o
    0x08000896   0x08000896   0x00000002   PAD
    0x08000898   0x08000898   0x00000030   Code   RO         1987    i.ADC_CommonInit    stm32f4xx_adc.o
    0x080008c8   0x080008c8   0x00000008   Code   RO         1998    i.ADC_GetConversionValue  stm32f4xx_adc.o
    0x080008d0   0x080008d0   0x00000012   Code   RO         1999    i.ADC_GetFlagStatus  stm32f4xx_adc.o
    0x080008e2   0x080008e2   0x00000002   PAD
    0x080008e4   0x080008e4   0x00000054   Code   RO         2006    i.ADC_Init          stm32f4xx_adc.o
    0x08000938   0x08000938   0x000000b8   Code   RO         2011    i.ADC_RegularChannelConfig  stm32f4xx_adc.o
    0x080009f0   0x080009f0   0x0000000a   Code   RO         2013    i.ADC_SoftwareStartConv  stm32f4xx_adc.o
    0x080009fa   0x080009fa   0x00000002   PAD
    0x080009fc   0x080009fc   0x00000084   Code   RO         1697    i.Adc_Init          adc.o
    0x08000a80   0x08000a80   0x00000110   Code   RO         1787    i.AutoCatch_CatchBullet  catchbullet.o
    0x08000b90   0x08000b90   0x000001a0   Code   RO          723    i.AutoCatch_TaskControl  catchcontrol.o
    0x08000d30   0x08000d30   0x000000a8   Code   RO          724    i.AutoCatch_TaskJudge  catchcontrol.o
    0x08000dd8   0x08000dd8   0x00000094   Code   RO          725    i.AutoCatch_tInit   catchcontrol.o
    0x08000e6c   0x08000e6c   0x00000076   Code   RO          999    i.BSP_Init          bsp.o
    0x08000ee2   0x08000ee2   0x00000002   PAD
    0x08000ee4   0x08000ee4   0x00000020   Code   RO          554    i.Bullet_Load_Judge  shootcontrol.o
    0x08000f04   0x08000f04   0x00000004   Code   RO          798    i.BusFault_Handler  stm32f4xx_it.o
    0x08000f08   0x08000f08   0x000000b0   Code   RO         1667    i.Buzzer_Init       buzzer.o
    0x08000fb8   0x08000fb8   0x00000058   Code   RO         1304    i.CAN1_Cmd_All      can.o
    0x08001010   0x08001010   0x00000100   Code   RO         1306    i.CAN1_Mode_Init    can.o
    0x08001110   0x08001110   0x00000110   Code   RO         1307    i.CAN1_RX0_IRQHandler  can.o
    0x08001220   0x08001220   0x00000064   Code   RO         1308    i.CAN1_Send_Bottom  can.o
    0x08001284   0x08001284   0x0000009c   Code   RO         1309    i.CAN2_Cmd_SHOOT    can.o
    0x08001320   0x08001320   0x00000108   Code   RO         1310    i.CAN2_Mode_Init    can.o
    0x08001428   0x08001428   0x000003e0   Code   RO         1311    i.CAN2_RX1_IRQHandler  can.o
    0x08001808   0x08001808   0x0000005c   Code   RO         1312    i.CAN2_Send_Bottom  can.o
    0x08001864   0x08001864   0x000000a8   Code   RO         2228    i.CAN_ClearITPendingBit  stm32f4xx_can.o
    0x0800190c   0x0800190c   0x00000108   Code   RO         2232    i.CAN_FilterInit    stm32f4xx_can.o
    0x08001a14   0x08001a14   0x00000120   Code   RO         2234    i.CAN_GetITStatus   stm32f4xx_can.o
    0x08001b34   0x08001b34   0x00000012   Code   RO         2238    i.CAN_ITConfig      stm32f4xx_can.o
    0x08001b46   0x08001b46   0x00000114   Code   RO         2239    i.CAN_Init          stm32f4xx_can.o
    0x08001c5a   0x08001c5a   0x000000f0   Code   RO         2242    i.CAN_Receive       stm32f4xx_can.o
    0x08001d4a   0x08001d4a   0x00000126   Code   RO         2247    i.CAN_Transmit      stm32f4xx_can.o
    0x08001e70   0x08001e70   0x00000014   Code   RO          260    i.CMControlInit     cmcontrol.o
    0x08001e84   0x08001e84   0x000000ac   Code   RO          261    i.CMControlLoop     cmcontrol.o
    0x08001f30   0x08001f30   0x00000190   Code   RO          262    i.CMControlOut      cmcontrol.o
    0x080020c0   0x080020c0   0x00000078   Code   RO          263    i.CMPID_Init        cmcontrol.o
    0x08002138   0x08002138   0x0000002e   Code   RO          264    i.CMSpeedLegalize   cmcontrol.o
    0x08002166   0x08002166   0x00000010   Code   RO          265    i.CMStop            cmcontrol.o
    0x08002176   0x08002176   0x00000002   PAD
    0x08002178   0x08002178   0x000000c4   Code   RO          670    i.CMWatt_Cal        monitorcontrol.o
    0x0800223c   0x0800223c   0x00000160   Code   RO          726    i.CatchControl      catchcontrol.o
    0x0800239c   0x0800239c   0x0000001a   Code   RO          727    i.CatchInit         catchcontrol.o
    0x080023b6   0x080023b6   0x00000012   Code   RO         2250    i.CheckITStatus     stm32f4xx_can.o
    0x080023c8   0x080023c8   0x00000100   Code   RO          873    i.Control_Task      controltask.o
    0x080024c8   0x080024c8   0x0000003c   Code   RO         1739    i.Cylinder_Configuration  cylinder.o
    0x08002504   0x08002504   0x00000028   Code   RO         1601    i.DMA1_Stream1_IRQHandler  usart3.o
    0x0800252c   0x0800252c   0x00000130   Code   RO         1254    i.DMA2_Stream2_IRQHandler  rc.o
    0x0800265c   0x0800265c   0x00000034   Code   RO         2951    i.DMA_ClearFlag     stm32f4xx_dma.o
    0x08002690   0x08002690   0x00000034   Code   RO         2952    i.DMA_ClearITPendingBit  stm32f4xx_dma.o
    0x080026c4   0x080026c4   0x00000016   Code   RO         2953    i.DMA_Cmd           stm32f4xx_dma.o
    0x080026da   0x080026da   0x00000002   PAD
    0x080026dc   0x080026dc   0x00000158   Code   RO         2954    i.DMA_DeInit        stm32f4xx_dma.o
    0x08002834   0x08002834   0x00000064   Code   RO         2963    i.DMA_GetITStatus   stm32f4xx_dma.o
    0x08002898   0x08002898   0x0000003a   Code   RO         2964    i.DMA_ITConfig      stm32f4xx_dma.o
    0x080028d2   0x080028d2   0x00000002   PAD
    0x080028d4   0x080028d4   0x00000058   Code   RO         2965    i.DMA_Init          stm32f4xx_dma.o
    0x0800292c   0x0800292c   0x00000002   Code   RO          799    i.DebugMon_Handler  stm32f4xx_it.o
    0x0800292e   0x0800292e   0x00000002   PAD
    0x08002930   0x08002930   0x0000008c   Code   RO          555    i.Empty_Detection   shootcontrol.o
    0x080029bc   0x080029bc   0x00000068   Code   RO          556    i.FrictionControl   shootcontrol.o
    0x08002a24   0x08002a24   0x000000b0   Code   RO          557    i.FrictionJudge     shootcontrol.o
    0x08002ad4   0x08002ad4   0x00000090   Code   RO         3486    i.GPIO_Init         stm32f4xx_gpio.o
    0x08002b64   0x08002b64   0x00000046   Code   RO         3487    i.GPIO_PinAFConfig  stm32f4xx_gpio.o
    0x08002baa   0x08002baa   0x00000012   Code   RO         3490    i.GPIO_ReadInputDataBit  stm32f4xx_gpio.o
    0x08002bbc   0x08002bbc   0x00000004   Code   RO         3493    i.GPIO_ResetBits    stm32f4xx_gpio.o
    0x08002bc0   0x08002bc0   0x00000004   Code   RO         3494    i.GPIO_SetBits      stm32f4xx_gpio.o
    0x08002bc4   0x08002bc4   0x00000030   Code   RO         1698    i.Get_Adc           adc.o
    0x08002bf4   0x08002bf4   0x00000038   Code   RO          413    i.GimbalControlInit  gimbalcontrol.o
    0x08002c2c   0x08002c2c   0x00000078   Code   RO          414    i.GimbalControlLoop  gimbalcontrol.o
    0x08002ca4   0x08002ca4   0x0000033c   Code   RO          415    i.GimbalControlValSet  gimbalcontrol.o
    0x08002fe0   0x08002fe0   0x000000ac   Code   RO          416    i.GimbalControl_Pitch  gimbalcontrol.o
    0x0800308c   0x0800308c   0x000000c8   Code   RO          417    i.GimbalControl_PitchAngel  gimbalcontrol.o
    0x08003154   0x08003154   0x000000bc   Code   RO          418    i.GimbalControl_Yaw  gimbalcontrol.o
    0x08003210   0x08003210   0x000000cc   Code   RO          419    i.GimbalControl_YawAngel  gimbalcontrol.o
    0x080032dc   0x080032dc   0x000000ac   Code   RO          420    i.GimbalMove        gimbalcontrol.o
    0x08003388   0x08003388   0x000000c8   Code   RO          421    i.GimbalPidInit     gimbalcontrol.o
    0x08003450   0x08003450   0x000000cc   Code   RO          422    i.GimbalPidInitPrepare  gimbalcontrol.o
    0x0800351c   0x0800351c   0x00000060   Code   RO          423    i.GimbalStop        gimbalcontrol.o
    0x0800357c   0x0800357c   0x0000003c   Code   RO            4    i.GimbalSwitchJudge  remotecontrol.o
    0x080035b8   0x080035b8   0x00000020   Code   RO          424    i.GimbalValLigal    gimbalcontrol.o
    0x080035d8   0x080035d8   0x00000020   Code   RO          558    i.GunControl        shootcontrol.o
    0x080035f8   0x080035f8   0x00000110   Code   RO          559    i.GunShootAction    shootcontrol.o
    0x08003708   0x08003708   0x00000004   Code   RO          800    i.HardFault_Handler  stm32f4xx_it.o
    0x0800370c   0x0800370c   0x00000040   Code   RO         1763    i.Infrared_Configuration  infrared.o
    0x0800374c   0x0800374c   0x000000dc   Code   RO         1255    i.ItoE              rc.o
    0x08003828   0x08003828   0x00000040   Code   RO         1643    i.Laser_Configuration  laser.o
    0x08003868   0x08003868   0x00000058   Code   RO          953    i.Led_Configuration  led.o
    0x080038c0   0x080038c0   0x00000124   Code   RO         1788    i.LiftPosSpeedcal   catchbullet.o
    0x080039e4   0x080039e4   0x0000002e   Code   RO         1790    i.Lift_Legalize     catchbullet.o
    0x08003a12   0x08003a12   0x00000002   PAD
    0x08003a14   0x08003a14   0x0000003c   Code   RO         1108    i.MPU6500ReadSPI    mpu6500.o
    0x08003a50   0x08003a50   0x00000030   Code   RO         1109    i.MPU6500ReadSPISingle  mpu6500.o
    0x08003a80   0x08003a80   0x00000030   Code   RO         1110    i.MPU6500WriteSPI   mpu6500.o
    0x08003ab0   0x08003ab0   0x0000009c   Code   RO         1111    i.MPU6500_Init      mpu6500.o
    0x08003b4c   0x08003b4c   0x000001a8   Code   RO         1112    i.MPU6500_Read      mpu6500.o
    0x08003cf4   0x08003cf4   0x00000004   Code   RO          801    i.MemManage_Handler  stm32f4xx_it.o
    0x08003cf8   0x08003cf8   0x0000002e   Code   RO          425    i.MotorCurrentLegalize  gimbalcontrol.o
    0x08003d26   0x08003d26   0x0000002e   Code   RO          426    i.MotorPositionLegalize  gimbalcontrol.o
    0x08003d54   0x08003d54   0x00000002   Code   RO          802    i.NMI_Handler       stm32f4xx_it.o
    0x08003d56   0x08003d56   0x00000002   PAD
    0x08003d58   0x08003d58   0x00000078   Code   RO         1932    i.NVIC_Init         misc.o
    0x08003dd0   0x08003dd0   0x00000012   Code   RO          343    i.PID_BitIsSet      pid.o
    0x08003de2   0x08003de2   0x00000002   PAD
    0x08003de4   0x08003de4   0x00000178   Code   RO          344    i.PID_Calc          pid.o
    0x08003f5c   0x08003f5c   0x0000002c   Code   RO          345    i.PID_Driver        pid.o
    0x08003f88   0x08003f88   0x00000022   Code   RO          346    i.PID_Init          pid.o
    0x08003faa   0x08003faa   0x00000002   PAD
    0x08003fac   0x08003fac   0x000000a8   Code   RO          347    i.PID_PreCalc       pid.o
    0x08004054   0x08004054   0x00000002   Code   RO          803    i.PendSV_Handler    stm32f4xx_it.o
    0x08004056   0x08004056   0x0000002e   Code   RO          560    i.PlateMotorCurrentLegalize  shootcontrol.o
    0x08004084   0x08004084   0x000000a8   Code   RO          561    i.PlatePID          shootcontrol.o
    0x0800412c   0x0800412c   0x0000006c   Code   RO          562    i.PlatePidInit      shootcontrol.o
    0x08004198   0x08004198   0x000000e8   Code   RO          671    i.PowerMonitor      monitorcontrol.o
    0x08004280   0x08004280   0x00000020   Code   RO         4130    i.RCC_AHB1PeriphClockCmd  stm32f4xx_rcc.o
    0x080042a0   0x080042a0   0x00000020   Code   RO         4139    i.RCC_APB1PeriphClockCmd  stm32f4xx_rcc.o
    0x080042c0   0x080042c0   0x00000020   Code   RO         4141    i.RCC_APB1PeriphResetCmd  stm32f4xx_rcc.o
    0x080042e0   0x080042e0   0x00000020   Code   RO         4142    i.RCC_APB2PeriphClockCmd  stm32f4xx_rcc.o
    0x08004300   0x08004300   0x00000020   Code   RO         4144    i.RCC_APB2PeriphResetCmd  stm32f4xx_rcc.o
    0x08004320   0x08004320   0x000000e8   Code   RO         4151    i.RCC_GetClocksFreq  stm32f4xx_rcc.o
    0x08004408   0x08004408   0x00000120   Code   RO         1256    i.RC_Init           rc.o
    0x08004528   0x08004528   0x00000054   Code   RO          672    i.RcReceiveMonitor  monitorcontrol.o
    0x0800457c   0x0800457c   0x0000002c   Code   RO          563    i.Read_Infrared_State  shootcontrol.o
    0x080045a8   0x080045a8   0x00000014   Code   RO            5    i.RemoteControlInit  remotecontrol.o
    0x080045bc   0x080045bc   0x00000010   Code   RO            6    i.RemoteControlLoop  remotecontrol.o
    0x080045cc   0x080045cc   0x00000054   Code   RO            7    i.RemoteStateFSM    remotecontrol.o
    0x08004620   0x08004620   0x00000084   Code   RO         1791    i.RotateSpeedcal    catchbullet.o
    0x080046a4   0x080046a4   0x000000ec   Code   RO         1077    i.SPI5Init          spi.o
    0x08004790   0x08004790   0x00000050   Code   RO         1078    i.SPI5ReadWriteByte  spi.o
    0x080047e0   0x080047e0   0x00000002   Code   RO          804    i.SVC_Handler       stm32f4xx_it.o
    0x080047e2   0x080047e2   0x00000010   Code   RO          349    i.SetPIDCR          pid.o
    0x080047f2   0x080047f2   0x00000002   PAD
    0x080047f4   0x080047f4   0x000000ec   Code   RO         6091    i.SetSysClock       system_stm32f4xx.o
    0x080048e0   0x080048e0   0x00000038   Code   RO          564    i.Set_Target        shootcontrol.o
    0x08004918   0x08004918   0x00000028   Code   RO          565    i.ShootControlInit  shootcontrol.o
    0x08004940   0x08004940   0x000000f4   Code   RO          566    i.ShootControlLoop  shootcontrol.o
    0x08004a34   0x08004a34   0x0000002c   Code   RO          567    i.ShootStop         shootcontrol.o
    0x08004a60   0x08004a60   0x00000028   Code   RO         1936    i.SysTick_CLKSourceConfig  misc.o
    0x08004a88   0x08004a88   0x00000002   Code   RO          805    i.SysTick_Handler   stm32f4xx_it.o
    0x08004a8a   0x08004a8a   0x00000002   PAD
    0x08004a8c   0x08004a8c   0x00000068   Code   RO         6093    i.SystemInit        system_stm32f4xx.o
    0x08004af4   0x08004af4   0x000000d8   Code   RO         1023    i.TIM12_Init        timer.o
    0x08004bcc   0x08004bcc   0x00000020   Code   RO         1024    i.TIM2_IRQHandler   timer.o
    0x08004bec   0x08004bec   0x0000005a   Code   RO         1025    i.TIM2_Init         timer.o
    0x08004c46   0x08004c46   0x00000002   PAD
    0x08004c48   0x08004c48   0x00000054   Code   RO         1026    i.TIM5_IRQHandler   timer.o
    0x08004c9c   0x08004c9c   0x0000005c   Code   RO         1027    i.TIM5_Init         timer.o
    0x08004cf8   0x08004cf8   0x000000f4   Code   RO         1908    i.TIM8_PWM_Init     pwm.o
    0x08004dec   0x08004dec   0x00000018   Code   RO         5268    i.TIM_ARRPreloadConfig  stm32f4xx_tim.o
    0x08004e04   0x08004e04   0x00000006   Code   RO         5275    i.TIM_ClearITPendingBit  stm32f4xx_tim.o
    0x08004e0a   0x08004e0a   0x00000018   Code   RO         5280    i.TIM_Cmd           stm32f4xx_tim.o
    0x08004e22   0x08004e22   0x0000001e   Code   RO         5282    i.TIM_CtrlPWMOutputs  stm32f4xx_tim.o
    0x08004e40   0x08004e40   0x00000022   Code   RO         5301    i.TIM_GetITStatus   stm32f4xx_tim.o
    0x08004e62   0x08004e62   0x00000012   Code   RO         5305    i.TIM_ITConfig      stm32f4xx_tim.o
    0x08004e74   0x08004e74   0x0000007c   Code   RO         5309    i.TIM_OC1Init       stm32f4xx_tim.o
    0x08004ef0   0x08004ef0   0x00000012   Code   RO         5312    i.TIM_OC1PreloadConfig  stm32f4xx_tim.o
    0x08004f02   0x08004f02   0x00000002   PAD
    0x08004f04   0x08004f04   0x000000a4   Code   RO         5314    i.TIM_OC2Init       stm32f4xx_tim.o
    0x08004fa8   0x08004fa8   0x0000001a   Code   RO         5317    i.TIM_OC2PreloadConfig  stm32f4xx_tim.o
    0x08004fc2   0x08004fc2   0x00000004   Code   RO         5342    i.TIM_SetCompare1   stm32f4xx_tim.o
    0x08004fc6   0x08004fc6   0x00000004   Code   RO         5343    i.TIM_SetCompare2   stm32f4xx_tim.o
    0x08004fca   0x08004fca   0x00000002   PAD
    0x08004fcc   0x08004fcc   0x00000084   Code   RO         5352    i.TIM_TimeBaseInit  stm32f4xx_tim.o
    0x08005050   0x08005050   0x00000124   Code   RO         1603    i.USART3_DMA_Init   usart3.o
    0x08005174   0x08005174   0x000000b4   Code   RO         1193    i.USART6_Configuration  usart6.o
    0x08005228   0x08005228   0x000000a0   Code   RO         1194    i.USART6_IRQHandler  usart6.o
    0x080052c8   0x080052c8   0x00000012   Code   RO         5830    i.USART_ClearFlag   stm32f4xx_usart.o
    0x080052da   0x080052da   0x00000018   Code   RO         5834    i.USART_Cmd         stm32f4xx_usart.o
    0x080052f2   0x080052f2   0x00000012   Code   RO         5835    i.USART_DMACmd      stm32f4xx_usart.o
    0x08005304   0x08005304   0x000000b4   Code   RO         5836    i.USART_DeInit      stm32f4xx_usart.o
    0x080053b8   0x080053b8   0x00000054   Code   RO         5838    i.USART_GetITStatus  stm32f4xx_usart.o
    0x0800540c   0x0800540c   0x0000004a   Code   RO         5840    i.USART_ITConfig    stm32f4xx_usart.o
    0x08005456   0x08005456   0x00000002   PAD
    0x08005458   0x08005458   0x000000d4   Code   RO         5841    i.USART_Init        stm32f4xx_usart.o
    0x0800552c   0x0800552c   0x0000000a   Code   RO         5848    i.USART_ReceiveData  stm32f4xx_usart.o
    0x08005536   0x08005536   0x00000004   Code   RO          806    i.UsageFault_Handler  stm32f4xx_it.o
    0x0800553a   0x0800553a   0x00000002   PAD
    0x0800553c   0x0800553c   0x00000044   Code   RO          874    i.WholeInitTask     controltask.o
    0x08005580   0x08005580   0x00000030   Code   RO         6519    i.__ARM_fpclassify  m_wm.l(fpclassify.o)
    0x080055b0   0x080055b0   0x00000360   Code   RO         6136    i.__hardfp_asin     m_wm.l(asin.o)
    0x08005910   0x08005910   0x000002d8   Code   RO         6488    i.__hardfp_atan     m_wm.l(atan.o)
    0x08005be8   0x08005be8   0x000001f0   Code   RO         6150    i.__hardfp_atan2    m_wm.l(atan2.o)
    0x08005dd8   0x08005dd8   0x000000c8   Code   RO         6162    i.__hardfp_cos      m_wm.l(cos.o)
    0x08005ea0   0x08005ea0   0x00000014   Code   RO         6174    i.__hardfp_fabs     m_wm.l(fabs.o)
    0x08005eb4   0x08005eb4   0x00000004   PAD
    0x08005eb8   0x08005eb8   0x000000c8   Code   RO         6180    i.__hardfp_sin      m_wm.l(sin.o)
    0x08005f80   0x08005f80   0x0000007a   Code   RO         6192    i.__hardfp_sqrt     m_wm.l(sqrt.o)
    0x08005ffa   0x08005ffa   0x00000006   PAD
    0x08006000   0x08006000   0x00000438   Code   RO         6524    i.__ieee754_rem_pio2  m_wm.l(rred.o)
    0x08006438   0x08006438   0x00000170   Code   RO         6502    i.__kernel_cos      m_wm.l(cos_i.o)
    0x080065a8   0x080065a8   0x000000f8   Code   RO         6521    i.__kernel_poly     m_wm.l(poly.o)
    0x080066a0   0x080066a0   0x00000130   Code   RO         6529    i.__kernel_sin      m_wm.l(sin_i.o)
    0x080067d0   0x080067d0   0x00000014   Code   RO         6506    i.__mathlib_dbl_infnan  m_wm.l(dunder.o)
    0x080067e4   0x080067e4   0x00000014   Code   RO         6507    i.__mathlib_dbl_infnan2  m_wm.l(dunder.o)
    0x080067f8   0x080067f8   0x00000020   Code   RO         6508    i.__mathlib_dbl_invalid  m_wm.l(dunder.o)
    0x08006818   0x08006818   0x00000020   Code   RO         6511    i.__mathlib_dbl_underflow  m_wm.l(dunder.o)
    0x08006838   0x08006838   0x0000000e   Code   RO         6585    i.__scatterload_copy  mc_w.l(handlers.o)
    0x08006846   0x08006846   0x00000002   Code   RO         6586    i.__scatterload_null  mc_w.l(handlers.o)
    0x08006848   0x08006848   0x0000000e   Code   RO         6587    i.__scatterload_zeroinit  mc_w.l(handlers.o)
    0x08006856   0x08006856   0x00000002   PAD
    0x08006858   0x08006858   0x0000000c   Code   RO         6559    i.__set_errno       mc_w.l(errno.o)
    0x08006864   0x08006864   0x00000010   Code   RO         6490    i.atan              m_wm.l(atan.o)
    0x08006874   0x08006874   0x000000b8   Code   RO          568    i.blocking_judge    shootcontrol.o
    0x0800692c   0x0800692c   0x00000014   Code   RO         1793    i.catchfinish       catchbullet.o
    0x08006940   0x08006940   0x000000a4   Code   RO         1794    i.catchinit         catchbullet.o
    0x080069e4   0x080069e4   0x00000014   Code   RO         1795    i.catchstart        catchbullet.o
    0x080069f8   0x080069f8   0x0000003c   Code   RO          909    i.delay_init        delay.o
    0x08006a34   0x08006a34   0x00000038   Code   RO          910    i.delay_ms          delay.o
    0x08006a6c   0x08006a6c   0x0000004c   Code   RO          912    i.delay_xms         delay.o
    0x08006ab8   0x08006ab8   0x00000018   Code   RO         6176    i.fabs              m_wm.l(fabs.o)
    0x08006ad0   0x08006ad0   0x00000044   Code   RO         1797    i.flift             catchbullet.o
    0x08006b14   0x08006b14   0x00000068   Code   RO         1798    i.fliftdown         catchbullet.o
    0x08006b7c   0x08006b7c   0x00000078   Code   RO          266    i.followValCal      cmcontrol.o
    0x08006bf4   0x08006bf4   0x00000016   Code   RO         1114    i.getDeviceID       mpu6500.o
    0x08006c0a   0x08006c0a   0x00000002   PAD
    0x08006c0c   0x08006c0c   0x00000140   Code   RO         1115    i.gyro_offset       mpu6500.o
    0x08006d4c   0x08006d4c   0x00000150   Code   RO         1517    i.init_euler        euler.o
    0x08006e9c   0x08006e9c   0x0000003c   Code   RO         1518    i.invSqrt           euler.o
    0x08006ed8   0x08006ed8   0x000004bc   Code   RO          267    i.keyboardmove_old  cmcontrol.o
    0x08007394   0x08007394   0x000000d0   Code   RO         1799    i.liftinit          catchbullet.o
    0x08007464   0x08007464   0x00000008   Code   RO          774    i.main              main.o
    0x0800746c   0x0800746c   0x0000000c   Code   RO          673    i.monitorControlLoop  monitorcontrol.o
    0x08007478   0x08007478   0x00000160   Code   RO          268    i.move              cmcontrol.o
    0x080075d8   0x080075d8   0x00000014   Code   RO         1800    i.movebackward      catchbullet.o
    0x080075ec   0x080075ec   0x00000014   Code   RO         1801    i.moveforward       catchbullet.o
    0x08007600   0x08007600   0x00000040   Code   RO         1802    i.moveinit          catchbullet.o
    0x08007640   0x08007640   0x00000010   Code   RO         1116    i.myabs             mpu6500.o
    0x08007650   0x08007650   0x0000006e   Code   RO         6194    i.sqrt              m_wm.l(sqrt.o)
    0x080076be   0x080076be   0x00000002   PAD
    0x080076c0   0x080076c0   0x00000370   Code   RO         1519    i.update_euler      euler.o
    0x08007a30   0x08007a30   0x00000050   Data   RO         6139    .constdata          m_wm.l(asin.o)
    0x08007a80   0x08007a80   0x00000098   Data   RO         6491    .constdata          m_wm.l(atan.o)
    0x08007b18   0x08007b18   0x00000030   Data   RO         6503    .constdata          m_wm.l(cos_i.o)
    0x08007b48   0x08007b48   0x00000008   Data   RO         6523    .constdata          m_wm.l(qnan.o)
    0x08007b50   0x08007b50   0x000000c8   Data   RO         6526    .constdata          m_wm.l(rred.o)
    0x08007c18   0x08007c18   0x00000028   Data   RO         6530    .constdata          m_wm.l(sin_i.o)
    0x08007c40   0x08007c40   0x00000020   Data   RO         6583    Region$$Table       anon$$obj.o


    Execution Region RW_IRAM1 (Exec base: 0x20000000, Load base: 0x08007c60, Size: 0x00000b20, Max: 0x00020000, ABSOLUTE, COMPRESSED[0x0000007c])

    Exec Addr    Load Addr    Size         Type   Attr      Idx    E Section Name        Object

    0x20000000   COMPRESSED   0x00000002   Data   RW            8    .data               remotecontrol.o
    0x20000002   COMPRESSED   0x00000002   PAD
    0x20000004   COMPRESSED   0x00000036   Data   RW          270    .data               cmcontrol.o
    0x2000003a   COMPRESSED   0x00000002   PAD
    0x2000003c   COMPRESSED   0x00000025   Data   RW          428    .data               gimbalcontrol.o
    0x20000061   COMPRESSED   0x00000003   PAD
    0x20000064   COMPRESSED   0x0000009c   Data   RW          570    .data               shootcontrol.o
    0x20000100   COMPRESSED   0x00000006   Data   RW          674    .data               monitorcontrol.o
    0x20000106   COMPRESSED   0x00000002   PAD
    0x20000108   COMPRESSED   0x00000056   Data   RW          728    .data               catchcontrol.o
    0x2000015e   COMPRESSED   0x00000002   PAD
    0x20000160   COMPRESSED   0x00000008   Data   RW          875    .data               controltask.o
    0x20000168   COMPRESSED   0x00000004   Data   RW          913    .data               delay.o
    0x2000016c   COMPRESSED   0x00000003   Data   RW         1028    .data               timer.o
    0x2000016f   COMPRESSED   0x00000001   PAD
    0x20000170   COMPRESSED   0x00000010   Data   RW         1118    .data               mpu6500.o
    0x20000180   COMPRESSED   0x0000000a   Data   RW         1198    .data               usart6.o
    0x2000018a   COMPRESSED   0x00000007   Data   RW         1259    .data               rc.o
    0x20000191   COMPRESSED   0x00000003   PAD
    0x20000194   COMPRESSED   0x0000003c   Data   RW         1314    .data               can.o
    0x200001d0   COMPRESSED   0x00000034   Data   RW         1520    .data               euler.o
    0x20000204   COMPRESSED   0x00000025   Data   RW         1804    .data               catchbullet.o
    0x20000229   COMPRESSED   0x00000010   Data   RW         4174    .data               stm32f4xx_rcc.o
    0x20000239   COMPRESSED   0x00000003   PAD
    0x2000023c   COMPRESSED   0x00000004   Data   RW         6560    .data               mc_w.l(errno.o)
    0x20000240        -       0x00000070   Zero   RW          269    .bss                cmcontrol.o
    0x200002b0        -       0x000000f0   Zero   RW          427    .bss                gimbalcontrol.o
    0x200003a0        -       0x00000070   Zero   RW          569    .bss                shootcontrol.o
    0x20000410        -       0x0000002c   Zero   RW         1117    .bss                mpu6500.o
    0x2000043c        -       0x000000c8   Zero   RW         1197    .bss                usart6.o
    0x20000504        -       0x0000003e   Zero   RW         1258    .bss                rc.o
    0x20000542   COMPRESSED   0x00000002   PAD
    0x20000544        -       0x00000028   Zero   RW         1313    .bss                can.o
    0x2000056c        -       0x00000064   Zero   RW         1604    .bss                usart3.o
    0x200005d0        -       0x00000150   Zero   RW         1803    .bss                catchbullet.o
    0x20000720        -       0x00000400   Zero   RW         6129    STACK               startup_stm32f4xx.o


==============================================================================

Image component sizes


      Code (inc. data)   RO Data    RW Data    ZI Data      Debug   Object Name

       180         12          0          0          0       1489   adc.o
       118          0          0          0          0        667   bsp.o
       176         10          0          0          0        818   buzzer.o
      2220        180          0         60         40       9544   can.o
      1430        248          0         37        336       9806   catchbullet.o
      1110        196          0         86          0       5103   catchcontrol.o
      2458        206          0         54        112       9016   cmcontrol.o
       324         24          0          8          0       1790   controltask.o
        60          6          0          0          0        693   cylinder.o
       192         12          0          4          0       2424   delay.o
      1276        100          0         52          0       3650   euler.o
      2564        398          0         37        240      13176   gimbalcontrol.o
        64         10          0          0          0        689   infrared.o
        64          4          0          0          0        682   laser.o
        88          8          0          0          0        680   led.o
         8          0          0          0          0        583   main.o
       160         14          0          0          0       2058   misc.o
       524         74          0          6          0       3306   monitorcontrol.o
      1094         86          0         16         44      11068   mpu6500.o
       656         16          0          0          0       6271   pid.o
       244          8          0          0          0        944   pwm.o
       812         64          0          7         62       4679   rc.o
       180         30          0          2          0     301260   remotecontrol.o
      1690        282          0        156        112      13058   shootcontrol.o
       316         24          0          0          0       1559   spi.o
        36          8        392          0       1024       1004   startup_stm32f4xx.o
       374         24          0          0          0       6870   stm32f4xx_adc.o
      1566         16          0          0          0       7910   stm32f4xx_can.o
       716         72          0          0          0       7115   stm32f4xx_dma.o
       240          0          0          0          0       4519   stm32f4xx_gpio.o
        26          0          0          0          0       5222   stm32f4xx_it.o
       392         48          0         16          0       6841   stm32f4xx_rcc.o
       608         48          0          0          0      10920   stm32f4xx_tim.o
       620         32          0          0          0       7574   stm32f4xx_usart.o
       340         32          0          0          0       2149   system_stm32f4xx.o
       514         26          0          3          0       3990   timer.o
       332         32          0          0        100       2328   usart3.o
       340         30          0         10        200       3928   usart6.o

    ----------------------------------------------------------------------
     24152       2380        424        572       2272     475383   Object Totals
         0          0         32          0          0          0   (incl. Generated)
        40          0          0         18          2          0   (incl. Padding)

    ----------------------------------------------------------------------

      Code (inc. data)   RO Data    RW Data    ZI Data      Debug   Library Member Name

       864         94         80          0          0        280   asin.o
       744        106        152          0          0        352   atan.o
       496         64          0          0          0        192   atan2.o
       200         20          0          0          0        164   cos.o
       368         46         48          0          0        200   cos_i.o
       104         16          0          0          0        496   dunder.o
        44          0          0          0          0        248   fabs.o
        48          0          0          0          0        124   fpclassify.o
       248          0          0          0          0        152   poly.o
         0          0          8          0          0          0   qnan.o
      1080        142        200          0          0        188   rred.o
       200         20          0          0          0        164   sin.o
       304         24         40          0          0        208   sin_i.o
       232          0          0          0          0        296   sqrt.o
        86          0          0          0          0          0   __dczerorl2.o
         0          0          0          0          0          0   entry.o
         0          0          0          0          0          0   entry10a.o
         0          0          0          0          0          0   entry11a.o
         8          4          0          0          0          0   entry2.o
         4          0          0          0          0          0   entry5.o
         0          0          0          0          0          0   entry7b.o
         0          0          0          0          0          0   entry8b.o
         8          4          0          0          0          0   entry9a.o
        12          6          0          4          0         68   errno.o
        30          0          0          0          0          0   handlers.o
        36          8          0          0          0         68   init.o
         0          0          0          0          0          0   iusefp.o
        30          0          0          0          0         68   llshl.o
        36          0          0          0          0         68   llsshr.o
        32          0          0          0          0         68   llushr.o
        48          0          0          0          0         68   cdrcmple.o
        56          0          0          0          0         88   d2f.o
       334          0          0          0          0        148   dadd.o
       222          0          0          0          0        100   ddiv.o
       186          0          0          0          0        176   depilogue.o
        62          0          0          0          0         80   dfixi.o
        34          0          0          0          0         76   dflti.o
        26          0          0          0          0         76   dfltui.o
       228          0          0          0          0         96   dmul.o
       162          0          0          0          0        100   dsqrt.o
        38          0          0          0          0         68   f2d.o
       110          0          0          0          0        168   fepilogue.o

    ----------------------------------------------------------------------
      6736        554        528          4          0       4648   Library Totals
        16          0          0          0          0          0   (incl. Padding)

    ----------------------------------------------------------------------

      Code (inc. data)   RO Data    RW Data    ZI Data      Debug   Library Name

      4932        532        528          0          0       3064   m_wm.l
       282         22          0          4          0        340   mc_w.l
      1506          0          0          0          0       1244   mf_w.l

    ----------------------------------------------------------------------
      6736        554        528          4          0       4648   Library Totals

    ----------------------------------------------------------------------

==============================================================================


      Code (inc. data)   RO Data    RW Data    ZI Data      Debug   

     30888       2934        952        576       2272     460587   Grand Totals
     30888       2934        952        124       2272     460587   ELF Image Totals (compressed)
     30888       2934        952        124          0          0   ROM Totals

==============================================================================

    Total RO  Size (Code + RO Data)                31840 (  31.09kB)
    Total RW  Size (RW Data + ZI Data)              2848 (   2.78kB)
    Total ROM Size (Code + RO Data + RW Data)      31964 (  31.21kB)

==============================================================================

